(lp0
S'Buena idea! Qu\xc3\xa9 piensan los dem\xc3\xa1s de eso?'
p1
aS'Me gusta! Qu\xc3\xa9 opinan los dem\xc3\xa1s?'
p2
aS'Suena bien! Los dem\xc3\xa1s como lo ven?'
p3
aS'Super idea! Qu\xc3\xa9 dicen los dem\xc3\xa1s?'
p4
aS'Muy creativa idea! C\xc3\xb3mo lo ven?'
p5
aS'Excelente idea! Qu\xc3\xa9 opinan? '
p6
aS'Suena super! Qu\xc3\xa9 piensan de esa idea?'
p7
aS'Me agrada! C\xc3\xb3mo lo ven?'
p8
aS'Genial! Qu\xc3\xa9 piensan de esa idea los otros?'
p9
aS'Buena idea! Qu\xc3\xa9 dicen los otros de eso?  '
p10
a.