(lp0
S'We = power!'
p1
aS"Don't mourn for me--ORGANIZE!"
p2
aS'We must learn to live together as brothers or we are going to perish together as fools!'
p3
aS'Organize, and stand together!'
p4
aS'Let the nation and the world know the meaning of our numbers!'
p5
aS'We must remember that a right lost to one is lost to all!'
p6
aS'United we bargain; divided we beg!'
p7
aS'Upon the conduct of each depends the fate of all!'
p8
a.