(lp0
S'United we stand divided we fall!'
p1
aS'Alone we can do so little; together we can do so much!'
p2
aS'The people united will never be defeated!'
p3
aS'There are no problems we cannot solve together, and very few that we can solve alone!'
p4
aS'When spiders unite, they can tie down a lion!'
p5
aS'We must indeed all hang together, or, most assuredly, we shall all hang separately!'
p6
aS'In Unity there is strength!'
p7
aS'Cross the river in a crowd and the crocodile won\xe2\x80\x99t eat you!'
p8
aS'United jaws crush the bone!'
p9
aS'Without unity we are victims. Stay united!'
p10
aS'Union gives strength!'
p11
a.