(lp0
S'Unir esfuerzos es buena receta!'
p1
aS'Trabajar juntos divide el trabajo y multiplica resultados!'
p2
aS'Cuando hay trabajo en equipo, cosas maravillosas se logran!'
p3
aS'Ninguno de nosotros es tan inteligente como todos juntos!'
p4
aS'Se necesitan dos piedras para hacer fuego!'
p5
aS'Si todos avanzamos hacia adelante juntos, entonces el \xc3\xa9xito llegar\xc3\xa1!'
p6
aS'El talento gana juegos, pero el trabajo en equipogana campeonatos!'
p7
aS'Cualquier poder si no se basa en la uni\xc3\xb3n es d\xc3\xa9bil!'
p8
a.