(lp0
S'Solos podemos hacer tan poco, juntos muchissimo!'
p1
aS'La gente unida jam\xc3\xa1s ser\xc3\xa1 vencida!'
p2
aS'La Solidaridad une a las personas y la uni\xc3\xb3n de las personas hacen la Paz!'
p3
aS'La reuni\xc3\xb3n en el reba\xc3\xb1o obliga al le\xc3\xb3n a acostarse con hambre!'
p4
aS'Todos para uno y uno para todos!'
p5
aS'La uni\xc3\xb3n nos hace tan fuertes como d\xc3\xa9biles la desuni\xc3\xb3n!'
p6
aS'Muchos pocos hacen un mucho!'
p7
aS'No hay estabilidad sin solidaridad y solidaridad sin estabilidad!'
p8
aS'Las hormigas reunidas pueden vencer al le\xc3\xb3n!'
p9
aS'Cuando las ara\xc3\xb1as se unen, pueden atar a un le\xc3\xb3n!'
p10
aS'Tras la conducta de cada uno depende el destino de todos!'
p11
a.