(dp0
S'@saiphchen'
p1
(dp2
S'saiphchen'
p3
(dp4
S'tweets'
p5
(dp6
S'603362523497115648'
p7
(dp8
S'date'
p9
cdatetime
datetime
p10
(S'\x07\xdf\x05\x1b\x002\t\x00\x00\x00'
p11
tp12
Rp13
sS'message'
p14
S'@ColabRobot ya hasta me ha quebrado los talones'
p15
sssS'numParticipations'
p16
I1
sss.