(dp0
S'@jazq144@layalaur@palcasjorge'
p1
(dp2
S'layalaur'
p3
(dp4
S'tweets'
p5
(dp6
S'603652977019232256'
p7
(dp8
S'date'
p9
cdatetime
datetime
p10
(S'\x07\xdf\x05\x1b\x14\x07\x11\x00\x00\x00'
p11
tp12
Rp13
sS'message'
p14
S'@ColabRobot @palcasjorge @jazq144 El que tenga los medios para hacer videos que los haga'
p15
sssS'numParticipations'
p16
I1
sssS'@pollotelaviv'
p17
(dp18
S'pollotelaviv'
p19
(dp20
g5
(dp21
S'603652932874194944'
p22
(dp23
g9
g10
(S'\x07\xdf\x05\x1b\x14\x04\x07\x00\x00\x00'
p24
tp25
Rp26
sg14
S'@ColabRobot En  vzla la "revolucion" ha sacado lo mas bajo del ser humano. La corrupcion es casi un requisito  para gobernar'
p27
sssg16
I1
sss.