(dp0
S'@saiphchen'
p1
(dp2
S'saiphchen'
p3
(dp4
S'tweets'
p5
(dp6
S'596394862028529664'
p7
(dp8
S'date'
p9
cdatetime
datetime
p10
(S'\x07\xdf\x05\x07\x13\x16\x1f\x00\x00\x00'
p11
tp12
Rp13
sS'message'
p14
S'@ColabRobot la corrupcion nos matara'
p15
sssS'numParticipations'
p16
I1
sssS'@bossmanupdates'
p17
(dp18
S'bossmanupdates'
p19
(dp20
g5
(dp21
S'596514575152852992'
p22
(dp23
g9
g10
(S'\x07\xdf\x05\x08\x03\x12\x0c\x00\x00\x00'
p24
tp25
Rp26
sg14
S'@ColabRobot Please subscribe to my YouTube channel for the Mitch &amp; Marcus GTA series! Link in bio!! via http://t.co/njU1K3Fug8'
p27
sssg16
I1
sss.