(dp0
N(dp1
S'@saiphchen'
p2
(lp3
S'@ColabRobot la corrupcion nos matara'
p4
asS'@bossmanupdates'
p5
(lp6
S'@ColabRobot Please subscribe to my YouTube channel for the Mitch &amp; Marcus GTA series! Link in bio!! via http://t.co/njU1K3Fug8'
p7
ass.