(dp0
N(dp1
S'@pollotelaviv'
p2
(lp3
S'@ColabRobot En  vzla la "revolucion" ha sacado lo mas bajo del ser humano. La corrupcion es casi un requisito  para gobernar'
p4
assI603651890518306818
(dp5
S'@jazq144@layalaur@palcasjorge'
p6
(lp7
S'@ColabRobot @palcasjorge @jazq144 El que tenga los medios para hacer videos que los haga'
p8
ass.