(dp0
V@invencible1347@nitramsolrac@sergio_jimenezp
p1
(dp2
S'idTweet'
p3
(lp4
S'604416810998337536'
p5
ag5
aS'604417023217557505'
p6
ag6
aS'604417048945434624'
p7
ag7
aS'604418983618473984'
p8
ag8
aS'604419447508467712'
p9
ag9
aS'604423156720267264'
p10
ag10
aS'604801277571104768'
p11
ag11
aS'604801683852435457'
p12
ag12
aS'604801871383916544'
p13
ag13
aS'604802317615898626'
p14
ag14
asS'mensaje'
p15
(lp16
S'@nitramsolrac @invencible1347 @sergio_jimenezp Me late! Y qu\xc3\xa9 reducimos, para no tener corrupci\xc3\xb3n?'
p17
aS'@nitramsolrac @invencible1347 @sergio_jimenezp Muchos pocos hacen un mucho!'
p18
aS'@nitramsolrac @invencible1347 @sergio_jimenezp OK! Pero, Y c\xc3\xb3mo usar Twitter contra la impunidad?'
p19
aS'@nitramsolrac @invencible1347 @sergio_jimenezp La reuni\xc3\xb3n en el reba\xc3\xb1o obliga al le\xc3\xb3n a acostarse con hambre!'
p20
aS'@nitramsolrac @invencible1347 @sergio_jimenezp Gran idea! Y c\xc3\xb3mo usar a la gente contra la impunidad?'
p21
aS'@nitramsolrac @invencible1347 @sergio_jimenezp La uni\xc3\xb3n nos hace tan fuertes como d\xc3\xa9biles la desuni\xc3\xb3n!'
p22
aS'@nitramsolrac @invencible1347 @sergio_jimenezp Super! Y del pa\xc3\xads, c\xc3\xb3mo la quitamos?'
p23
aS'@nitramsolrac @invencible1347 @sergio_jimenezp La Solidaridad une a las personas y la uni\xc3\xb3n de las personas hacen la Paz!'
p24
aS'@nitramsolrac @invencible1347 @sergio_jimenezp Super! Pero, y en todo el pa\xc3\xads, c\xc3\xb3mo combatirla?'
p25
aS'@nitramsolrac @invencible1347 @sergio_jimenezp No hay estabilidad sin solidaridad y solidaridad sin estabilidad!'
p26
aS'@nitramsolrac @invencible1347 @sergio_jimenezp Super! Y qu\xc3\xa9 debemos cambiar en casa para combatirla?'
p27
aS'@nitramsolrac @invencible1347 @sergio_jimenezp Todos para uno y uno para todos!'
p28
aS'@nitramsolrac @invencible1347 @sergio_jimenezp Me late! Y qu\xc3\xa9 reducimos, para eliminar la impunidad?'
p29
aS'@nitramsolrac @invencible1347 @sergio_jimenezp Tras la conducta de cada uno depende el destino de todos!'
p30
aS'@nitramsolrac @invencible1347 @sergio_jimenezp Buena idea! Y qu\xc3\xa9 debemos cambiar en casa para combatirla?'
p31
aS'@nitramsolrac @invencible1347 @sergio_jimenezp Las hormigas reunidas pueden vencer al le\xc3\xb3n!'
p32
aS'@nitramsolrac @invencible1347 @sergio_jimenezp OK! Y c\xc3\xb3mo usamos Twitter para eliminar la corrupci\xc3\xb3n?'
p33
aS'@nitramsolrac @invencible1347 @sergio_jimenezp Cuando las ara\xc3\xb1as se unen, pueden atar a un le\xc3\xb3n!'
p34
aS'@nitramsolrac @invencible1347 @sergio_jimenezp Bien! Pero, c\xc3\xb3mo combatimos la corrupci\xc3\xb3n en nuestras Cds?'
p35
aS'@nitramsolrac @invencible1347 @sergio_jimenezp Solos podemos hacer tan poco, juntos muchissimo!'
p36
assS'@adriantomasa@dpasquale1@fjavier570515'
p37
(dp38
g3
(lp39
S'604466963113328640'
p40
ag40
asg15
(lp41
S'@fjavier570515 @adriantomasa @dpasquale1 Me late! Y qu\xc3\xa9 reducimos, para no tener corrupci\xc3\xb3n?'
p42
aS'@fjavier570515 @adriantomasa @dpasquale1 Tras la conducta de cada uno depende el destino de todos!'
p43
assS'@gabrlelmleon'
p44
(dp45
g3
(lp46
S'603960195400769536'
p47
ag47
aS'604424496116854784'
p48
ag48
asg15
(lp49
S'@gabrlelmleon Es una muy buena pregunta. Los dem\xc3\xa1s qu\xc3\xa9 piensan?'
p50
aS'@gabrlelmleon Unir esfuerzos es buena receta!'
p51
aS'@gabrlelmleon Es una muy buena pregunta. Los dem\xc3\xa1s qu\xc3\xa9 piensan?'
p52
aS'@gabrlelmleon Trabajar juntos divide el trabajo y multiplica resultados!'
p53
ass.