(dp0
S'@saiphchen'
p1
(dp2
S'idTweet'
p3
(lp4
S'596394862028529664'
p5
asS'mensaje'
p6
(lp7
S'@saiphchen Bien! Pero, c\xc3\xb3mo combatimos la impunidad en nuestras Cds?'
p8
assS'@bossmanupdates'
p9
(dp10
g3
(lp11
S'596514575152852992'
p12
asg6
(lp13
S'@bossmanupdates Bien! Pero, c\xc3\xb3mo combatimos la impunidad en nuestras Cds?'
p14
ass.