(dp0
S'@lic_miguelorea@masde131@orlandomuoz_1'
p1
(dp2
S'idTweet'
p3
(lp4
S'597164821549711360'
p5
aS'597170191009624064'
p6
asS'mensaje'
p7
(lp8
S'@lic_miguelorea @orlandomuoz_1 @masde131 Bien! C\xc3\xb3mo combatir la impunidad en nuestras Cds para un mejor futuro?'
p9
aS'@lic_miguelorea @orlandomuoz_1 @masde131 Super! Y en todo el pa\xc3\xads, c\xc3\xb3mo combatirla para un mejor futuro?'
p10
assV@chochomares@paisayupit@pmanzo70
p11
(dp12
g3
(lp13
sg7
(lp14
ssS'@mau_gdc'
p15
(dp16
g3
(lp17
S'598576916354859008'
p18
asg7
(lp19
S'@mau_gdc Es una muy buena pregunta. Los dem\xc3\xa1s qu\xc3\xa9 piensan? Pensemos para mejor el pa\xc3\xads!'
p20
ass.