(dp0
S'@compavendetta_4@j5uanh@veronikhank'
p1
(dp2
S'idTweet'
p3
(lp4
S'604161377935048704'
p5
asS'mensaje'
p6
(lp7
S'@j5uanh @compavendetta_4 @veronikhank Super! Y qu\xc3\xa9 debemos cambiar en casa para un mejor futuro sin ella?'
p8
assS'@saiphchen'
p9
(dp10
g3
(lp11
S'604447447591493632'
p12
asg6
(lp13
S'@saiphchen Me late! Y qu\xc3\xa9 reducimos, para no tener corrupci\xc3\xb3n y estar mejor?'
p14
assS'@joramell_a@migueljm@williamnavea'
p15
(dp16
g3
(lp17
S'604069335242510337'
p18
aS'604069421259345920'
p19
asg6
(lp20
S'@joramell_a @migueljm @williamnavea Super! Y en todo el pa\xc3\xads, c\xc3\xb3mo combatirla para un mejor futuro?'
p21
aS'@williamnavea @joramell_a @migueljm OK! Y c\xc3\xb3mo usar Twitter para un mejor futuro sin corrupci\xc3\xb3n?'
p22
assS'@niicocherry@pepitomonchito1@tutogol'
p23
(dp24
g3
(lp25
S'604335327432556544'
p26
aS'604406896511078400'
p27
asg6
(lp28
S'@niicocherry @pepitomonchito1 @tutogol OK! Y c\xc3\xb3mo usar Twitter para un mejor futuro sin corrupci\xc3\xb3n?'
p29
aS'@niicocherry @pepitomonchito1 @tutogol Bien! Y c\xc3\xb3mo usamos al pueblo para un mejor futuro sin ella?'
p30
assS'@abilio_juan@felipenanno@notigerencial'
p31
(dp32
g3
(lp33
S'604157211061981184'
p34
asg6
(lp35
S'@felipenanno @abilio_juan @notigerencial Bien! Y c\xc3\xb3mo usamos al pueblo para un mejor futuro sin ella?'
p36
assV@mrivas22@pablohiriart@thaliaro24
p37
(dp38
g3
(lp39
sg6
(lp40
ssS'@hannahprensa@rinconderufo@rubenchoski'
p41
(dp42
g3
(lp43
S'603730742540009472'
p44
asg6
(lp45
S'@rinconderufo @rubenchoski @hannahprensa Bien! Y c\xc3\xb3mo usamos al pueblo para un mejor futuro sin ella?'
p46
assV@1elmarque@aguspereyrat@luisrolando12
p47
(dp48
g3
(lp49
sg6
(lp50
ssS'@jimmy_olano@leo_omares@yoyicordobaw'
p51
(dp52
g3
(lp53
S'604062427257442304'
p54
asg6
(lp55
S'@leo_omares @jimmy_olano @yoyicordobaw Me late! Y qu\xc3\xa9 reducimos, para no tener corrupci\xc3\xb3n y estar mejor?'
p56
assS'@thaliaro24'
p57
(dp58
g3
(lp59
S'603748689845202946'
p60
aS'603749212862324736'
p61
aS'603750430821130241'
p62
aS'603751861217173504'
p63
aS'603753073631088640'
p64
aS'603753660661641216'
p65
aS'603756072143290368'
p66
asg6
(lp67
S'@thaliaro24 OK! Y c\xc3\xb3mo usar Twitter para un mejor futuro sin corrupci\xc3\xb3n?'
p68
aS'@thaliaro24 Super! Y qu\xc3\xa9 cambiamos personalmente para combatirla y estar mejor?'
p69
aS'@thaliaro24 Me late! Y qu\xc3\xa9 reducimos, para no tener corrupci\xc3\xb3n y estar mejor?'
p70
aS'@thaliaro24 Super! Y en todo el pa\xc3\xads, c\xc3\xb3mo combatirla para un mejor futuro?'
p71
aS'@thaliaro24 Super! Y qu\xc3\xa9 debemos cambiar en casa para un mejor futuro sin ella?'
p72
aS'@thaliaro24 Bien! C\xc3\xb3mo combatir la corrupci\xc3\xb3n en nuestras Cds para un mejor futuro?'
p73
aS'@thaliaro24 Bien! Y c\xc3\xb3mo usamos al pueblo para un mejor futuro sin ella?'
p74
assV@carlicerrutti@cesarpo33@ojocallejero
p75
(dp76
g3
(lp77
sg6
(lp78
ssS'@williamnavea'
p79
(dp80
g3
(lp81
S'604070219183722498'
p82
asg6
(lp83
S'@williamnavea Super! Y qu\xc3\xa9 cambiamos personalmente para combatirla y estar mejor?'
p84
assS'@recendiz0469@rockdirecto@sunoticiero'
p85
(dp86
g3
(lp87
S'603921093485821953'
p88
asg6
(lp89
S'@recendiz0469 @rockdirecto @sunoticiero Bien! Y c\xc3\xb3mo usamos al pueblo para un mejor futuro sin ella?'
p90
assV@mimi@mimidonato10
p91
(dp92
g3
(lp93
sg6
(lp94
ss.