(dp0
S'@saiphchen'
p1
(dp2
S'idTweet'
p3
(lp4
S'603362717781463040'
p5
ag5
asS'mensaje'
p6
(lp7
S'@saiphchen Super! Y en todo el pa\xc3\xads, c\xc3\xb3mo combatirla?'
p8
aS'@saiphchen La reuni\xc3\xb3n en el reba\xc3\xb1o obliga al le\xc3\xb3n a acostarse con hambre!'
p9
ass.