(dp0
S'@jazq144@layalaur@palcasjorge'
p1
(dp2
S'idTweet'
p3
(lp4
S'603652977019232256'
p5
asS'mensaje'
p6
(lp7
S'@layalaur @jazq144 @palcasjorge OK! Y c\xc3\xb3mo usamos Twitter para eliminar la impunidad?'
p8
assS'@pollotelaviv'
p9
(dp10
g3
(lp11
S'603652932874194944'
p12
asg6
(lp13
S'@pollotelaviv Super! Pero, y en todo el pa\xc3\xads, c\xc3\xb3mo combatirla?'
p14
ass.