(dp0
S'@pollotelaviv Super! Pero, y en todo el pa\xc3\xads, c\xc3\xb3mo combatirla?'
p1
(dp2
S'@jazq144@layalaur@palcasjorge'
p3
S'@ColabRobot @palcasjorge @jazq144 El que tenga los medios para hacer videos que los haga'
p4
ssS'firstReply'
p5
(dp6
S'@pollotelaviv'
p7
S'@ColabRobot En  vzla la "revolucion" ha sacado lo mas bajo del ser humano. La corrupcion es casi un requisito  para gobernar'
p8
ss.