(dp0
S'@likezabdy @nolackms @sejoniku Bien! C\xc3\xb3mo combatir la corrupci\xc3\xb3n en nuestras Cds? El pa\xc3\xads si no, caer\xc3\xa1!'
p1
(dp2
S'@bisshoop@jcregales@regresiva1'
p3
S'@colaboracionBot @Regresiva1 @Jcregales No gracias me gusta opinar "vigilante" se dice paraco en chibcha'
p4
ssS'@bisshoop @regresiva1 @jcregales Super! Y Tu qu\xc3\xa9 cambias para combatirla? Si no, nuestros hijos sufren!'
p5
(dp6
S'@bisshoop@jcregales@regresiva1'
p7
S'@colaboracionBot @Regresiva1 @Jcregales opinar y denunciar, no me gusta el bullyin de ningun lado'
p8
ssS'@bisshoop @regresiva1 @jcregales Bien! Y c\xc3\xb3mo usamos al pueblo para combatirla? Si no, caer\xc3\xa1 todo!'
p9
(dp10
S'@bisshoop@jcregales@regresiva1'
p11
S'@colaboracionBot @Regresiva1 @Jcregales buen algortimo, voy a denunciarlo #spam'
p12
ssS'firstReply'
p13
(dp14
S'@betsyarreola@hugorf_uc@jsbriganti'
p15
S'@colaboracionBot @jsbriganti @BetsyArreola hay que hacer videos y todo lo necesario para que comiencen a caer 1 x 1'
p16
ssS'@betsyarreola @hugorf_uc @jsbriganti Bien! Y c\xc3\xb3mo usamos al pueblo para combatirla? Si no, caer\xc3\xa1 todo!'
p17
(dp18
S'@likezabdy@nolackms@sejoniku'
p19
S'@colaboracionBot @NolackMS @LikeZabdy creo que corresponde'
p20
ss.