(dp0
S'firstReply'
p1
(dp2
S'@saiphchen'
p3
S'@ColabRobot la corrupcion nos matara'
p4
ssS'@saiphchen Bien! Pero, c\xc3\xb3mo combatimos la impunidad en nuestras Cds?'
p5
(dp6
S'@bossmanupdates'
p7
S'@ColabRobot Please subscribe to my YouTube channel for the Mitch &amp; Marcus GTA series! Link in bio!! via http://t.co/njU1K3Fug8'
p8
ss.