(dp0
S'firstReply'
p1
(dp2
S'@lic_miguelorea@masde131@orlandomuoz_1'
p3
S'@botColaboracion @lic_miguelorea @masde131 cuentas con mi apoyo pero que sea un movimiento pacifico apegado a la legalidad'
p4
ssS'@lic_miguelorea @orlandomuoz_1 @masde131 Bien! C\xc3\xb3mo combatir la impunidad en nuestras Cds para un mejor futuro?'
p5
(dp6
S'@lic_miguelorea@masde131@orlandomuoz_1'
p7
S'@botColaboracion @lic_miguelorea @masde131 unidos podemos avanzar'
p8
ssS'@lic_miguelorea @orlandomuoz_1 @masde131 Super! Y en todo el pa\xc3\xads, c\xc3\xb3mo combatirla para un mejor futuro?'
p9
(dp10
S'@mau_gdc'
p11
S'@botColaboracion hola! Andamos organizando algo contra el aumento en las Autopistas del sol y la Pera. Tienes gente que se sume?'
p12
ss.