(dp0
S'solidarityBot'
p1
(dp2
S'@canal10tucuman1@martin3910@mussiocardenas'
p3
S'@mussiocardenas @martin3910 @canal10tucuman1 Colaboramos contra la corrupci\xc3\xb3n? Haremos v\xc3\xaddeos de pol\xc3\xadticos corruptos?'
p4
sS'@_godards@lagarto_nelson@mario_martines1'
p5
S'@mario_martines1 @lagarto_nelson @_godards Colaboramos contra la corrupci\xc3\xb3n? Haremos v\xc3\xaddeos de pol\xc3\xadticos corruptos?'
p6
sS'@emiliatoba@samira0710@wmacaya'
p7
S'@wmacaya @samira0710 @emiliatoba Colaboramos contra la corrupci\xc3\xb3n? Haremos v\xc3\xaddeos de pol\xc3\xadticos corruptos?'
p8
sS'@ancato60@beto7103@yeison_manrique'
p9
S'@yeison_manrique @beto7103 @ancato60 Colaboramos contra la corrupci\xc3\xb3n? Haremos v\xc3\xaddeos de pol\xc3\xadticos corruptos?'
p10
sS'@carser3107@lamamadevilla@normanjvalerio'
p11
S'@normanjvalerio @lamamadevilla @carser3107 Colaboramos contra la corrupci\xc3\xb3n? Haremos v\xc3\xaddeos de pol\xc3\xadticos corruptos?'
p12
sS'@antonioarggar@olgabarrantes@rbtax'
p13
S'@rbtax @olgabarrantes @antonioarggar Colaboramos contra la corrupci\xc3\xb3n? Haremos v\xc3\xaddeos de pol\xc3\xadticos corruptos?'
p14
sS'@07071946@faberganza@zchierse'
p15
S'@zchierse @faberganza @07071946 Colaboramos contra la corrupci\xc3\xb3n? Haremos v\xc3\xaddeos de pol\xc3\xadticos corruptos?'
p16
sS'@alexcuellar29@charito0ortiz@elizame56511275'
p17
S'@elizame56511275 @charito0ortiz @alexcuellar29 Colaboramos contra la corrupci\xc3\xb3n? Haremos v\xc3\xaddeos de pol\xc3\xadticos corruptos?'
p18
sS'@melsvill59@moris1912@pilarutri'
p19
S'@pilarutri @moris1912 @melsvill59 Colaboramos contra la corrupci\xc3\xb3n? Haremos v\xc3\xaddeos de pol\xc3\xadticos corruptos?'
p20
sS'@780am@buccinomarivin1@saramorenopy'
p21
S'@saramorenopy @buccinomarivin1 @780am Colaboramos contra la corrupci\xc3\xb3n? Haremos v\xc3\xaddeos de pol\xc3\xadticos corruptos?'
p22
sS'@chileno_soy@loreleigarcia@srjuan_vazquez'
p23
S'@srjuan_vazquez @loreleigarcia @chileno_soy Colaboramos contra la corrupci\xc3\xb3n? Haremos v\xc3\xaddeos de pol\xc3\xadticos corruptos?'
p24
sS'@cristobalrec@icsisabella06@porartedemajia'
p25
S'@porartedemajia @icsisabella06 @cristobalrec Colaboramos contra la corrupci\xc3\xb3n? Haremos v\xc3\xaddeos de pol\xc3\xadticos corruptos?'
p26
sS'@cangon67@juanafdg38@nazarenomogetta'
p27
S'@nazarenomogetta @juanafdg38 @cangon67 Colaboramos contra la corrupci\xc3\xb3n? Haremos v\xc3\xaddeos de pol\xc3\xadticos corruptos?'
p28
sS'@carolhuelmo@ibaale@libertciudadana'
p29
S'@libertciudadana @ibaale @carolhuelmo Colaboramos contra la corrupci\xc3\xb3n? Haremos v\xc3\xaddeos de pol\xc3\xadticos corruptos?'
p30
sS'@acaf77arias@manusote@peraltagiio'
p31
S'@peraltagiio @manusote @acaf77arias Colaboramos contra la corrupci\xc3\xb3n? Haremos v\xc3\xaddeos de pol\xc3\xadticos corruptos?'
p32
sS'@gayoso198506@rosa9501@solpenny'
p33
S'@solpenny @rosa9501 @gayoso198506 Colaboramos contra la corrupci\xc3\xb3n? Haremos v\xc3\xaddeos de pol\xc3\xadticos corruptos?'
p34
sS'@jorgeisaac@luisostosm@serher61'
p35
S'@serher61 @luisostosm @jorgeisaac Colaboramos contra la corrupci\xc3\xb3n? Haremos v\xc3\xaddeos de pol\xc3\xadticos corruptos?'
p36
sS'@matchvisionint@reporterosdlsur@tmateotmg'
p37
S'@tmateotmg @reporterosdlsur @matchvisionint Colaboramos contra la corrupci\xc3\xb3n? Haremos v\xc3\xaddeos de pol\xc3\xadticos corruptos?'
p38
sS'@danielsais@paulbriz@pifernan'
p39
S'@pifernan @paulbriz @danielsais Colaboramos contra la corrupci\xc3\xb3n? Haremos v\xc3\xaddeos de pol\xc3\xadticos corruptos?'
p40
sS'@arturoromerov@jfiscalizador@zapataperu'
p41
S'@zapataperu @jfiscalizador @arturoromerov Colaboramos contra la corrupci\xc3\xb3n? Haremos v\xc3\xaddeos de pol\xc3\xadticos corruptos?'
p42
sS'@ascona02one@aybarh@nalalop'
p43
S'@nalalop @aybarh @ascona02one Colaboramos contra la corrupci\xc3\xb3n? Haremos v\xc3\xaddeos de pol\xc3\xadticos corruptos?'
p44
sS'@cosmicdust323@cristia_locutor@santonesa'
p45
S'@santonesa @cristia_locutor @cosmicdust323 Colaboramos contra la corrupci\xc3\xb3n? Haremos v\xc3\xaddeos de pol\xc3\xadticos corruptos?'
p46
sS'@darisinforma@elperiodicodeut@pdelcambio'
p47
S'@pdelcambio @elperiodicodeut @darisinforma Colaboramos contra la corrupci\xc3\xb3n? Haremos v\xc3\xaddeos de pol\xc3\xadticos corruptos?'
p48
sS'@bonadeofederico@jayejohsnon@katam_brice'
p49
S'@katam_brice @jayejohsnon @bonadeofederico Colaboramos contra la corrupci\xc3\xb3n? Haremos v\xc3\xaddeos de pol\xc3\xadticos corruptos?'
p50
sS'@angeles520@jaimeeduardo69@uruguay_soccer'
p51
S'@uruguay_soccer @jaimeeduardo69 @angeles520 Colaboramos contra la corrupci\xc3\xb3n? Haremos v\xc3\xaddeos de pol\xc3\xadticos corruptos?'
p52
sS'@darisjaquez@floresmendoza80@poderurbano_'
p53
S'@poderurbano_ @floresmendoza80 @darisjaquez Colaboramos contra la corrupci\xc3\xb3n? Haremos v\xc3\xaddeos de pol\xc3\xadticos corruptos?'
p54
sS'@alcantarajavier@andreitalaila@jonathaancp'
p55
S'@jonathaancp @andreitalaila @alcantarajavier Colaboramos contra la corrupci\xc3\xb3n? Haremos v\xc3\xaddeos de pol\xc3\xadticos corruptos?'
p56
sS'@inesexposito191@jaumesalse@vixcoxa54'
p57
S'@vixcoxa54 @jaumesalse @inesexposito191 Colaboramos contra la corrupci\xc3\xb3n? Haremos v\xc3\xaddeos de pol\xc3\xadticos corruptos?'
p58
sS'@35apchimbo@pviloutaoficial@ultima_pagina'
p59
S'@ultima_pagina @pviloutaoficial @35apchimbo Colaboramos contra la corrupci\xc3\xb3n? Haremos v\xc3\xaddeos de pol\xc3\xadticos corruptos?'
p60
sS'@appel_roy@elianafebe@mirtajc'
p61
S'@mirtajc @elianafebe @appel_roy Colaboramos contra la corrupci\xc3\xb3n? Haremos v\xc3\xaddeos de pol\xc3\xadticos corruptos?'
p62
sS'@amelia930@automas_mag@reenloqesido'
p63
S'@reenloqesido @automas_mag @amelia930 Colaboramos contra la corrupci\xc3\xb3n? Haremos v\xc3\xaddeos de pol\xc3\xadticos corruptos?'
p64
sS'@efpolan@magoamuedo@rafamenjivar'
p65
S'@rafamenjivar @magoamuedo @efpolan Colaboramos contra la corrupci\xc3\xb3n? Haremos v\xc3\xaddeos de pol\xc3\xadticos corruptos?'
p66
sS'@anonimo123pp@huitzilomar@zuny2santos'
p67
S'@zuny2santos @huitzilomar @anonimo123pp Colaboramos contra la corrupci\xc3\xb3n? Haremos v\xc3\xaddeos de pol\xc3\xadticos corruptos?'
p68
sS'@breimarpanama@carsulleiro@patoisernia'
p69
S'@patoisernia @carsulleiro @breimarpanama Colaboramos contra la corrupci\xc3\xb3n? Haremos v\xc3\xaddeos de pol\xc3\xadticos corruptos?'
p70
sS'@armper2912@chichidh@mauriola'
p71
S'@mauriola @chichidh @armper2912 Colaboramos contra la corrupci\xc3\xb3n? Haremos v\xc3\xaddeos de pol\xc3\xadticos corruptos?'
p72
sS'@jorge_manzoni@mily61@rozuch'
p73
S'@rozuch @mily61 @jorge_manzoni Colaboramos contra la corrupci\xc3\xb3n? Haremos v\xc3\xaddeos de pol\xc3\xadticos corruptos?'
p74
sS'@maktweet_@ramirez201186@zarasenda'
p75
S'@zarasenda @ramirez201186 @maktweet_ Colaboramos contra la corrupci\xc3\xb3n? Haremos v\xc3\xaddeos de pol\xc3\xadticos corruptos?'
p76
sS'@anyulina63@filosofiacule@jerrykarma'
p77
S'@jerrykarma @filosofiacule @anyulina63 Colaboramos contra la corrupci\xc3\xb3n? Haremos v\xc3\xaddeos de pol\xc3\xadticos corruptos?'
p78
sS'@hormiga776@marapaolagarca@subversivos_'
p79
S'@subversivos_ @marapaolagarca @hormiga776 Colaboramos contra la corrupci\xc3\xb3n? Haremos v\xc3\xaddeos de pol\xc3\xadticos corruptos?'
p80
sS'@leno04f@politifobia1@vpruelas'
p81
S'@vpruelas @politifobia1 @leno04f Colaboramos contra la corrupci\xc3\xb3n? Haremos v\xc3\xaddeos de pol\xc3\xadticos corruptos?'
p82
sS'@doctorrockfm@jime_men_@juan_chafer'
p83
S'@juan_chafer @jime_men_ @doctorrockfm Colaboramos contra la corrupci\xc3\xb3n? Haremos v\xc3\xaddeos de pol\xc3\xadticos corruptos?'
p84
sS'@gino_arce@joseantoniogo43@manndi72'
p85
S'@manndi72 @joseantoniogo43 @gino_arce Colaboramos contra la corrupci\xc3\xb3n? Haremos v\xc3\xaddeos de pol\xc3\xadticos corruptos?'
p86
ss.