(dp0
S'lossBot'
p1
(dp2
S'@belurivass@gra_chiod@ross_0611'
p3
S'@ross_0611 @gra_chiod @belurivass Colaboramos contra la corrupci\xc3\xb3n? Si no, el pa\xc3\xads sufrir\xc3\xa1! Haremos v\xc3\xaddeos de pol\xc3\xadticos corruptos?'
p4
sS'@combonoticias@nqnmati@nqnmati'
p5
S'@nqnmati @nqnmati @combonoticias Colaboramos contra la corrupci\xc3\xb3n? Si no, el pa\xc3\xads sufrir\xc3\xa1! Haremos v\xc3\xaddeos de pol\xc3\xadticos corruptos?'
p6
sS'@andru_ss@lamary_2@ruzilt'
p7
S'@ruzilt @lamary_2 @andru_ss Colaboramos contra la corrupci\xc3\xb3n? Si no, el pa\xc3\xads sufrir\xc3\xa1! Haremos v\xc3\xaddeos de pol\xc3\xadticos corruptos?'
p8
sS'@jaca2@joteocam@thysla'
p9
S'@thysla @joteocam @jaca2 Colaboramos contra la corrupci\xc3\xb3n? Si no, el pa\xc3\xads sufrir\xc3\xa1! Haremos v\xc3\xaddeos de pol\xc3\xadticos corruptos?'
p10
sS'@psurtubi@tlo02@vivitasan37'
p11
S'@vivitasan37 @tlo02 @psurtubi Colaboramos contra la corrupci\xc3\xb3n? Si no, el pa\xc3\xads sufrir\xc3\xa1! Haremos v\xc3\xaddeos de pol\xc3\xadticos corruptos?'
p12
sS'@cguillen_40@hora20lared@jibah0'
p13
S'@jibah0 @hora20lared @cguillen_40 Colaboramos contra la corrupci\xc3\xb3n? Si no, el pa\xc3\xads sufrir\xc3\xa1! Haremos v\xc3\xaddeos de pol\xc3\xadticos corruptos?'
p14
sS'@moontu7@ovalle_omar@yitzelaguilar'
p15
S'@yitzelaguilar @ovalle_omar @moontu7 Colaboramos contra la corrupci\xc3\xb3n? Si no, el pa\xc3\xads sufrir\xc3\xa1! Haremos v\xc3\xaddeos de pol\xc3\xadticos corruptos?'
p16
sS'@kciquepty@nildaetman@robecaldera'
p17
S'@robecaldera @nildaetman @kciquepty Colaboramos contra la corrupci\xc3\xb3n? Si no, el pa\xc3\xads sufrir\xc3\xa1! Haremos v\xc3\xaddeos de pol\xc3\xadticos corruptos?'
p18
sS'@eracay@evefallico@rolfi_p'
p19
S'@rolfi_p @evefallico @eracay Colaboramos contra la corrupci\xc3\xb3n? Si no, el pa\xc3\xads sufrir\xc3\xa1! Haremos v\xc3\xaddeos de pol\xc3\xadticos corruptos?'
p20
sS'@chbr2011@serelpablo@taliilarsen'
p21
S'@taliilarsen @serelpablo @chbr2011 Colaboramos contra la corrupci\xc3\xb3n? Si no, el pa\xc3\xads sufrir\xc3\xa1! Haremos v\xc3\xaddeos de pol\xc3\xadticos corruptos?'
p22
sS'@4pagenda@byron_roots@ccabrerago88'
p23
S'@ccabrerago88 @byron_roots @4pagenda Colaboramos contra la corrupci\xc3\xb3n? Si no, el pa\xc3\xads sufrir\xc3\xa1! Haremos v\xc3\xaddeos de pol\xc3\xadticos corruptos?'
p24
sS'@jerecabre@patsylu6@yazminbustan'
p25
S'@yazminbustan @patsylu6 @jerecabre Colaboramos contra la corrupci\xc3\xb3n? Si no, el pa\xc3\xads sufrir\xc3\xa1! Haremos v\xc3\xaddeos de pol\xc3\xadticos corruptos?'
p26
sS'@carlosabihaggle@judavh@ma2671970'
p27
S'@ma2671970 @judavh @carlosabihaggle Colaboramos contra la corrupci\xc3\xb3n? Si no, el pa\xc3\xads sufrir\xc3\xa1! Haremos v\xc3\xaddeos de pol\xc3\xadticos corruptos?'
p28
sS'@777asturias@egbarg@josegamac'
p29
S'@josegamac @egbarg @777asturias Colaboramos contra la corrupci\xc3\xb3n? Si no, el pa\xc3\xads sufrir\xc3\xa1! Haremos v\xc3\xaddeos de pol\xc3\xadticos corruptos?'
p30
sS'@5bauti@_guatemala_@blasitodicarlo'
p31
S'@blasitodicarlo @_guatemala_ @5bauti Colaboramos contra la corrupci\xc3\xb3n? Si no, el pa\xc3\xads sufrir\xc3\xa1! Haremos v\xc3\xaddeos de pol\xc3\xadticos corruptos?'
p32
sS'@betsyarreola@hugorf_uc@jsbriganti'
p33
S'@jsbriganti @hugorf_uc @betsyarreola Colaboramos contra la corrupci\xc3\xb3n? Si no, el pa\xc3\xads sufrir\xc3\xa1! Haremos v\xc3\xaddeos de pol\xc3\xadticos corruptos?'
p34
sS'@bisshoop@jcregales@regresiva1'
p35
S'@regresiva1 @jcregales @bisshoop Colaboramos contra la corrupci\xc3\xb3n? Si no, el pa\xc3\xads sufrir\xc3\xa1! Haremos v\xc3\xaddeos de pol\xc3\xadticos corruptos?'
p36
sS'@gonzamena84@rmmiranda73@rochhiio'
p37
S'@rochhiio @rmmiranda73 @gonzamena84 Colaboramos contra la corrupci\xc3\xb3n? Si no, el pa\xc3\xads sufrir\xc3\xa1! Haremos v\xc3\xaddeos de pol\xc3\xadticos corruptos?'
p38
sS'@likezabdy@nolackms@sejoniku'
p39
S'@sejoniku @nolackms @likezabdy Colaboramos contra la corrupci\xc3\xb3n? Si no, el pa\xc3\xads sufrir\xc3\xa1! Haremos v\xc3\xaddeos de pol\xc3\xadticos corruptos?'
p40
sS'@annaazul@marysioux@ponchoeljr'
p41
S'@ponchoeljr @marysioux @annaazul Colaboramos contra la corrupci\xc3\xb3n? Si no, el pa\xc3\xads sufrir\xc3\xa1! Haremos v\xc3\xaddeos de pol\xc3\xadticos corruptos?'
p42
sS'@fedekauff@marce65@rodrigo040908'
p43
S'@rodrigo040908 @marce65 @fedekauff Colaboramos contra la corrupci\xc3\xb3n? Si no, el pa\xc3\xads sufrir\xc3\xa1! Haremos v\xc3\xaddeos de pol\xc3\xadticos corruptos?'
p44
sS'@aiedayl@elliberocl@mipanamaideal'
p45
S'@mipanamaideal @elliberocl @aiedayl Colaboramos contra la corrupci\xc3\xb3n? Si no, el pa\xc3\xads sufrir\xc3\xa1! Haremos v\xc3\xaddeos de pol\xc3\xadticos corruptos?'
p46
sS'@liceamiriam@llobt@p_danielita'
p47
S'@p_danielita @llobt @liceamiriam Colaboramos contra la corrupci\xc3\xb3n? Si no, el pa\xc3\xads sufrir\xc3\xa1! Haremos v\xc3\xaddeos de pol\xc3\xadticos corruptos?'
p48
sS'@alietza1@armas_h@pablomarc66'
p49
S'@pablomarc66 @armas_h @alietza1 Colaboramos contra la corrupci\xc3\xb3n? Si no, el pa\xc3\xads sufrir\xc3\xa1! Haremos v\xc3\xaddeos de pol\xc3\xadticos corruptos?'
p50
sS'@bocadepescado@eduarleal@kciquepty'
p51
S'@kciquepty @eduarleal @bocadepescado Colaboramos contra la corrupci\xc3\xb3n? Si no, el pa\xc3\xads sufrir\xc3\xa1! Haremos v\xc3\xaddeos de pol\xc3\xadticos corruptos?'
p52
sS'@copi__@ulisespeza@ver0n1ca_b'
p53
S'@ver0n1ca_b @ulisespeza @copi__ Colaboramos contra la corrupci\xc3\xb3n? Si no, el pa\xc3\xads sufrir\xc3\xa1! Haremos v\xc3\xaddeos de pol\xc3\xadticos corruptos?'
p54
ss.