(dp0
S'directBot'
p1
(dp2
S'@ecescudero@gabiluraghi@jgerardino'
p3
S'@jgerardino @gabiluraghi @ecescudero Colaboramos contra la corrupci\xc3\xb3n? Haremos v\xc3\xaddeos de pol\xc3\xadticos corruptos?'
p4
sS'@allisonmoreno51@ryuzakingy@yo_no_mekedocon'
p5
S'@yo_no_mekedocon @ryuzakingy @allisonmoreno51 Colaboramos contra la corrupci\xc3\xb3n? Haremos v\xc3\xaddeos de pol\xc3\xadticos corruptos?'
p6
sS'@pollotelaviv@souljanaz@todomercadoweb'
p7
S'@todomercadoweb @souljanaz @pollotelaviv Colaboramos contra la corrupci\xc3\xb3n? Haremos v\xc3\xaddeos de pol\xc3\xadticos corruptos?'
p8
sS'@gustavinho26@lesbiaperez240@orestes91'
p9
S'@orestes91 @lesbiaperez240 @gustavinho26 Colaboramos contra la corrupci\xc3\xb3n? Haremos v\xc3\xaddeos de pol\xc3\xadticos corruptos?'
p10
sS'@maria15garcia02@martin_estebang@zu_alondra'
p11
S'@zu_alondra @martin_estebang @maria15garcia02 Colaboramos contra la corrupci\xc3\xb3n? Haremos v\xc3\xaddeos de pol\xc3\xadticos corruptos?'
p12
sS'@fariasmorachris@mmillanclosa@santopecado14'
p13
S'@santopecado14 @mmillanclosa @fariasmorachris Colaboramos contra la corrupci\xc3\xb3n? Haremos v\xc3\xaddeos de pol\xc3\xadticos corruptos?'
p14
sS'@enrike_barbosa3@isaias_faundez@julioalbarracin'
p15
S'@julioalbarracin @isaias_faundez @enrike_barbosa3 Colaboramos contra la corrupci\xc3\xb3n? Haremos v\xc3\xaddeos de pol\xc3\xadticos corruptos?'
p16
sS'@muddlaw@orlandogaya@sin_respeto'
p17
S'@sin_respeto @orlandogaya @muddlaw Colaboramos contra la corrupci\xc3\xb3n? Haremos v\xc3\xaddeos de pol\xc3\xadticos corruptos?'
p18
sS'@cortezbogs@mrleu23@qcruisq'
p19
S'@qcruisq @mrleu23 @cortezbogs Colaboramos contra la corrupci\xc3\xb3n? Haremos v\xc3\xaddeos de pol\xc3\xadticos corruptos?'
p20
sS'@jazq144@layalaur@palcasjorge'
p21
S'@palcasjorge @layalaur @jazq144 Colaboramos contra la corrupci\xc3\xb3n? Haremos v\xc3\xaddeos de pol\xc3\xadticos corruptos?'
p22
sS'@livepalestina@machocien14@mdelora'
p23
S'@mdelora @machocien14 @livepalestina Colaboramos contra la corrupci\xc3\xb3n? Haremos v\xc3\xaddeos de pol\xc3\xadticos corruptos?'
p24
sS'@annabujcusso@el_santi1979@leofigueroa4'
p25
S'@leofigueroa4 @el_santi1979 @annabujcusso Colaboramos contra la corrupci\xc3\xb3n? Haremos v\xc3\xaddeos de pol\xc3\xadticos corruptos?'
p26
sS'@74posesion@dave_germany@gonchi199'
p27
S'@gonchi199 @dave_germany @74posesion Colaboramos contra la corrupci\xc3\xb3n? Haremos v\xc3\xaddeos de pol\xc3\xadticos corruptos?'
p28
sS'@davidromerovara@josebramt@nenamolina93'
p29
S'@nenamolina93 @josebramt @davidromerovara Colaboramos contra la corrupci\xc3\xb3n? Haremos v\xc3\xaddeos de pol\xc3\xadticos corruptos?'
p30
sS'@cangrejero3@fer_garza23@r63j'
p31
S'@r63j @fer_garza23 @cangrejero3 Colaboramos contra la corrupci\xc3\xb3n? Haremos v\xc3\xaddeos de pol\xc3\xadticos corruptos?'
p32
ss.