(dp0
S'solidarityBot'
p1
(dp2
S'@josaintlawrence@lanubeescapista@m0martin'
p3
S'@m0martin @lanubeescapista @josaintlawrence Colaboramos contra la corrupci\xc3\xb3n? Haremos v\xc3\xaddeos de pol\xc3\xadticos corruptos?'
p4
sS'@babylatorrebl@dralvarezcozzi@rvsgra'
p5
S'@rvsgra @dralvarezcozzi @babylatorrebl Colaboramos contra la corrupci\xc3\xb3n? Haremos v\xc3\xaddeos de pol\xc3\xadticos corruptos?'
p6
sS'@ramar846@sircong@valeenttinn'
p7
S'@valeenttinn @sircong @ramar846 Colaboramos contra la corrupci\xc3\xb3n? Haremos v\xc3\xaddeos de pol\xc3\xadticos corruptos?'
p8
sS'@alvacisneros82@amparopanadero@mora_brina'
p9
S'@mora_brina @amparopanadero @alvacisneros82 Colaboramos contra la corrupci\xc3\xb3n? Haremos v\xc3\xaddeos de pol\xc3\xadticos corruptos?'
p10
sS'@aleochoa911@js_watashi@vikovikvik'
p11
S'@vikovikvik @js_watashi @aleochoa911 Colaboramos contra la corrupci\xc3\xb3n? Haremos v\xc3\xaddeos de pol\xc3\xadticos corruptos?'
p12
sS'@moratillak@quiros_14@yocampesinomex'
p13
S'@yocampesinomex @quiros_14 @moratillak Colaboramos contra la corrupci\xc3\xb3n? Haremos v\xc3\xaddeos de pol\xc3\xadticos corruptos?'
p14
sS'@dignariveros@lalola67_t@pellegri60maria'
p15
S'@pellegri60maria @lalola67_t @dignariveros Colaboramos contra la corrupci\xc3\xb3n? Haremos v\xc3\xaddeos de pol\xc3\xadticos corruptos?'
p16
sS'@mercibj@saribarcos@susanakana'
p17
S'@susanakana @saribarcos @mercibj Colaboramos contra la corrupci\xc3\xb3n? Haremos v\xc3\xaddeos de pol\xc3\xadticos corruptos?'
p18
sS'@emeshing@erregese@fran77j'
p19
S'@fran77j @erregese @emeshing Colaboramos contra la corrupci\xc3\xb3n? Haremos v\xc3\xaddeos de pol\xc3\xadticos corruptos?'
p20
sS'@diney21@monica_maksy@vicent_peris'
p21
S'@vicent_peris @monica_maksy @diney21 Colaboramos contra la corrupci\xc3\xb3n? Haremos v\xc3\xaddeos de pol\xc3\xadticos corruptos?'
p22
sS'@alfaplus@colarebo2010@prcles'
p23
S'@prcles @colarebo2010 @alfaplus Colaboramos contra la corrupci\xc3\xb3n? Haremos v\xc3\xaddeos de pol\xc3\xadticos corruptos?'
p24
sS'@jmmarlasca@paulaoelardor@pazgabela'
p25
S'@pazgabela @paulaoelardor @jmmarlasca Colaboramos contra la corrupci\xc3\xb3n? Haremos v\xc3\xaddeos de pol\xc3\xadticos corruptos?'
p26
sS'@gabboavicci@leo_rb_@tonialonso3777'
p27
S'@tonialonso3777 @leo_rb_ @gabboavicci Colaboramos contra la corrupci\xc3\xb3n? Haremos v\xc3\xaddeos de pol\xc3\xadticos corruptos?'
p28
sS'@hfernandez137@jrm_lavilla@quitaunanuncio'
p29
S'@quitaunanuncio @jrm_lavilla @hfernandez137 Colaboramos contra la corrupci\xc3\xb3n? Haremos v\xc3\xaddeos de pol\xc3\xadticos corruptos?'
p30
sS'@equosanse@francyriver@radioproletrio'
p31
S'@radioproletrio @francyriver @equosanse Colaboramos contra la corrupci\xc3\xb3n? Haremos v\xc3\xaddeos de pol\xc3\xadticos corruptos?'
p32
sS'@cartujopiloso@taanuu_@thecliniccl'
p33
S'@thecliniccl @taanuu_ @cartujopiloso Colaboramos contra la corrupci\xc3\xb3n? Haremos v\xc3\xaddeos de pol\xc3\xadticos corruptos?'
p34
sS'@conexionwin@morens13@sincorruptelas'
p35
S'@sincorruptelas @morens13 @conexionwin Colaboramos contra la corrupci\xc3\xb3n? Haremos v\xc3\xaddeos de pol\xc3\xadticos corruptos?'
p36
sS'@adriantomasa@dpasquale1@fjavier570515'
p37
S'@fjavier570515 @dpasquale1 @adriantomasa Colaboramos contra la corrupci\xc3\xb3n? Haremos v\xc3\xaddeos de pol\xc3\xadticos corruptos?'
p38
sS'@calacuayomx@diositamoreno@oviperal'
p39
S'@oviperal @diositamoreno @calacuayomx Colaboramos contra la corrupci\xc3\xb3n? Haremos v\xc3\xaddeos de pol\xc3\xadticos corruptos?'
p40
sS'@conacento_not@resteling@socorva'
p41
S'@socorva @resteling @conacento_not Colaboramos contra la corrupci\xc3\xb3n? Haremos v\xc3\xaddeos de pol\xc3\xadticos corruptos?'
p42
sS'@janus_2015@juanmarin763@manolo64mpi'
p43
S'@manolo64mpi @juanmarin763 @janus_2015 Colaboramos contra la corrupci\xc3\xb3n? Haremos v\xc3\xaddeos de pol\xc3\xadticos corruptos?'
p44
sS'@acivitavecchia@data_tomy@despiertaylucha'
p45
S'@despiertaylucha @data_tomy @acivitavecchia Colaboramos contra la corrupci\xc3\xb3n? Haremos v\xc3\xaddeos de pol\xc3\xadticos corruptos?'
p46
sS'@invencible1347@nitramsolrac@sergio_jimenezp'
p47
S'@sergio_jimenezp @nitramsolrac @invencible1347 Colaboramos contra la corrupci\xc3\xb3n? Haremos v\xc3\xaddeos de pol\xc3\xadticos corruptos?'
p48
sS'@goquich@jaricawas@therealjulk'
p49
S'@therealjulk @jaricawas @goquich Colaboramos contra la corrupci\xc3\xb3n? Haremos v\xc3\xaddeos de pol\xc3\xadticos corruptos?'
p50
sS'@anniumeres@danigymnastic@laleydelabici'
p51
S'@laleydelabici @danigymnastic @anniumeres Colaboramos contra la corrupci\xc3\xb3n? Haremos v\xc3\xaddeos de pol\xc3\xadticos corruptos?'
p52
sS'@merybernalb@pepesantigrey@tonialonso3777'
p53
S'@tonialonso3777 @pepesantigrey @merybernalb Colaboramos contra la corrupci\xc3\xb3n? Haremos v\xc3\xaddeos de pol\xc3\xadticos corruptos?'
p54
sS'@fandolini@rafae5@sebas_fer90'
p55
S'@sebas_fer90 @rafae5 @fandolini Colaboramos contra la corrupci\xc3\xb3n? Haremos v\xc3\xaddeos de pol\xc3\xadticos corruptos?'
p56
sS'@apachecrewchief@kikekom@marcoal63664118'
p57
S'@marcoal63664118 @kikekom @apachecrewchief Colaboramos contra la corrupci\xc3\xb3n? Haremos v\xc3\xaddeos de pol\xc3\xadticos corruptos?'
p58
sS'@corcho1316@jarva20000@parayky'
p59
S'@parayky @jarva20000 @corcho1316 Colaboramos contra la corrupci\xc3\xb3n? Haremos v\xc3\xaddeos de pol\xc3\xadticos corruptos?'
p60
sS'@leonqn@racsokin@seguridadcontra'
p61
S'@seguridadcontra @racsokin @leonqn Colaboramos contra la corrupci\xc3\xb3n? Haremos v\xc3\xaddeos de pol\xc3\xadticos corruptos?'
p62
sS'@antgalan@chambrelavadero@rodrigogaro'
p63
S'@rodrigogaro @chambrelavadero @antgalan Colaboramos contra la corrupci\xc3\xb3n? Haremos v\xc3\xaddeos de pol\xc3\xadticos corruptos?'
p64
sS'@britlati@madrochas03@raguna_buroedge'
p65
S'@raguna_buroedge @madrochas03 @britlati Colaboramos contra la corrupci\xc3\xb3n? Haremos v\xc3\xaddeos de pol\xc3\xadticos corruptos?'
p66
sS'@cadatarifado@pelosijose@vmparsi'
p67
S'@vmparsi @pelosijose @cadatarifado Colaboramos contra la corrupci\xc3\xb3n? Haremos v\xc3\xaddeos de pol\xc3\xadticos corruptos?'
p68
sS'@facutorresf@miguel_paradela@toni5632'
p69
S'@toni5632 @miguel_paradela @facutorresf Colaboramos contra la corrupci\xc3\xb3n? Haremos v\xc3\xaddeos de pol\xc3\xadticos corruptos?'
p70
sS'@cnafai@sgosergio@tigreceballos'
p71
S'@tigreceballos @sgosergio @cnafai Colaboramos contra la corrupci\xc3\xb3n? Haremos v\xc3\xaddeos de pol\xc3\xadticos corruptos?'
p72
sS'@antonioluciano2@pandrmora2015@tegaren8'
p73
S'@tegaren8 @pandrmora2015 @antonioluciano2 Colaboramos contra la corrupci\xc3\xb3n? Haremos v\xc3\xaddeos de pol\xc3\xadticos corruptos?'
p74
sS'@hugopazreal9paz@voluntarioscjc@zerobyte00'
p75
S'@zerobyte00 @voluntarioscjc @hugopazreal9paz Colaboramos contra la corrupci\xc3\xb3n? Haremos v\xc3\xaddeos de pol\xc3\xadticos corruptos?'
p76
sS'@aleecovello@hugoponton@tomeguindelpina'
p77
S'@tomeguindelpina @hugoponton @aleecovello Colaboramos contra la corrupci\xc3\xb3n? Haremos v\xc3\xaddeos de pol\xc3\xadticos corruptos?'
p78
sS'@escofetalbert@gaudi3801@lololopez3395'
p79
S'@lololopez3395 @gaudi3801 @escofetalbert Colaboramos contra la corrupci\xc3\xb3n? Haremos v\xc3\xaddeos de pol\xc3\xadticos corruptos?'
p80
ss.