(dp0
S'lossBot'
p1
(dp2
S'@alexpetizco@c4rlo2gonz4l3z@pindi'
p3
S'@pindi @c4rlo2gonz4l3z @alexpetizco Colaboramos contra la corrupci\xc3\xb3n? Si no, el pa\xc3\xads sufrir\xc3\xa1! Haremos v\xc3\xaddeos de pol\xc3\xadticos corruptos?'
p4
sS'@androti@luisalfonsobh@santiaguil'
p5
S'@santiaguil @luisalfonsobh @androti Colaboramos contra la corrupci\xc3\xb3n? Si no, el pa\xc3\xads sufrir\xc3\xa1! Haremos v\xc3\xaddeos de pol\xc3\xadticos corruptos?'
p6
sS'@anavarrot52@eggtivismo@micrisemy'
p7
S'@micrisemy @eggtivismo @anavarrot52 Colaboramos contra la corrupci\xc3\xb3n? Si no, el pa\xc3\xads sufrir\xc3\xa1! Haremos v\xc3\xaddeos de pol\xc3\xadticos corruptos?'
p8
sS'@drpocheche@guty1966@mazewahemuga'
p9
S'@mazewahemuga @guty1966 @drpocheche Colaboramos contra la corrupci\xc3\xb3n? Si no, el pa\xc3\xads sufrir\xc3\xa1! Haremos v\xc3\xaddeos de pol\xc3\xadticos corruptos?'
p10
sS'@000120o@lindsay_rafael@rolyed_08'
p11
S'@rolyed_08 @lindsay_rafael @000120o Colaboramos contra la corrupci\xc3\xb3n? Si no, el pa\xc3\xads sufrir\xc3\xa1! Haremos v\xc3\xaddeos de pol\xc3\xadticos corruptos?'
p12
sS'@98lurdees@michoacanonkbro@rielama'
p13
S'@rielama @michoacanonkbro @98lurdees Colaboramos contra la corrupci\xc3\xb3n? Si no, el pa\xc3\xads sufrir\xc3\xa1! Haremos v\xc3\xaddeos de pol\xc3\xadticos corruptos?'
p14
sS'@dospintas@gilixolypux@herrajeros'
p15
S'@herrajeros @gilixolypux @dospintas Colaboramos contra la corrupci\xc3\xb3n? Si no, el pa\xc3\xads sufrir\xc3\xa1! Haremos v\xc3\xaddeos de pol\xc3\xadticos corruptos?'
p16
sS'@cesitarmd@kanfer17@pinera_estafa'
p17
S'@pinera_estafa @kanfer17 @cesitarmd Colaboramos contra la corrupci\xc3\xb3n? Si no, el pa\xc3\xads sufrir\xc3\xa1! Haremos v\xc3\xaddeos de pol\xc3\xadticos corruptos?'
p18
sS'@cematetihan@kimarron@mariajota41'
p19
S'@mariajota41 @kimarron @cematetihan Colaboramos contra la corrupci\xc3\xb3n? Si no, el pa\xc3\xads sufrir\xc3\xa1! Haremos v\xc3\xaddeos de pol\xc3\xadticos corruptos?'
p20
sS'@agulman@albertoravell@judiyam'
p21
S'@judiyam @albertoravell @agulman Colaboramos contra la corrupci\xc3\xb3n? Si no, el pa\xc3\xads sufrir\xc3\xa1! Haremos v\xc3\xaddeos de pol\xc3\xadticos corruptos?'
p22
sS'@cinthyfc_1411@ezegior@veselkamoia'
p23
S'@veselkamoia @ezegior @cinthyfc_1411 Colaboramos contra la corrupci\xc3\xb3n? Si no, el pa\xc3\xads sufrir\xc3\xa1! Haremos v\xc3\xaddeos de pol\xc3\xadticos corruptos?'
p24
sS'@gamatvec@garcrevuelta@quelcia_'
p25
S'@quelcia_ @garcrevuelta @gamatvec Colaboramos contra la corrupci\xc3\xb3n? Si no, el pa\xc3\xads sufrir\xc3\xa1! Haremos v\xc3\xaddeos de pol\xc3\xadticos corruptos?'
p26
sS'@bradley2502@ma_ri_fe@sandra__gmez'
p27
S'@sandra__gmez @ma_ri_fe @bradley2502 Colaboramos contra la corrupci\xc3\xb3n? Si no, el pa\xc3\xads sufrir\xc3\xa1! Haremos v\xc3\xaddeos de pol\xc3\xadticos corruptos?'
p28
sS'@fizobopyrys@jpschillaci@jskrlo'
p29
S'@jskrlo @jpschillaci @fizobopyrys Colaboramos contra la corrupci\xc3\xb3n? Si no, el pa\xc3\xads sufrir\xc3\xa1! Haremos v\xc3\xaddeos de pol\xc3\xadticos corruptos?'
p30
sS'@joanpe_@pabl0rtiz@villalbayolimar'
p31
S'@villalbayolimar @pabl0rtiz @joanpe_ Colaboramos contra la corrupci\xc3\xb3n? Si no, el pa\xc3\xads sufrir\xc3\xa1! Haremos v\xc3\xaddeos de pol\xc3\xadticos corruptos?'
p32
sS'@esther14921238@meyerjm1@omar_hola'
p33
S'@omar_hola @meyerjm1 @esther14921238 Colaboramos contra la corrupci\xc3\xb3n? Si no, el pa\xc3\xads sufrir\xc3\xa1! Haremos v\xc3\xaddeos de pol\xc3\xadticos corruptos?'
p34
ss.