(dp0
S'solidarityBot'
p1
(dp2
S'@__gloria____@brian_carp13@dapariciov'
p3
S'@dapariciov @brian_carp13 @__gloria____ Colaboramos contra la corrupci\xc3\xb3n? Haremos v\xc3\xaddeos de pol\xc3\xadticos corruptos?'
p4
sS'@ajra_v@jardeniz@tato1927'
p5
S'@tato1927 @jardeniz @ajra_v Colaboramos contra la corrupci\xc3\xb3n? Haremos v\xc3\xaddeos de pol\xc3\xadticos corruptos?'
p6
sS'@aurumphi@leonelulik2@puentesana'
p7
S'@puentesana @leonelulik2 @aurumphi Colaboramos contra la corrupci\xc3\xb3n? Haremos v\xc3\xaddeos de pol\xc3\xadticos corruptos?'
p8
sS'@_favi_@diegonicolas_94@imanizate'
p9
S'@imanizate @diegonicolas_94 @_favi_ Colaboramos contra la corrupci\xc3\xb3n? Haremos v\xc3\xaddeos de pol\xc3\xadticos corruptos?'
p10
sS'@ivan__bostero@jumagaka@luissarricolea'
p11
S'@luissarricolea @jumagaka @ivan__bostero Colaboramos contra la corrupci\xc3\xb3n? Haremos v\xc3\xaddeos de pol\xc3\xadticos corruptos?'
p12
sS'@blancomio@misarta@samuel_akd'
p13
S'@samuel_akd @misarta @blancomio Colaboramos contra la corrupci\xc3\xb3n? Haremos v\xc3\xaddeos de pol\xc3\xadticos corruptos?'
p14
ss.