(dp0
S'gainBot'
p1
(dp2
S'@arzolais@flavkyiaroberto@rescolamarco'
p3
S'@rescolamarco @flavkyiaroberto @arzolais Colaboramos contra la corrupci\xc3\xb3n? As\xc3\xad el pa\xc3\xads mejora! Haremos v\xc3\xaddeos de pol\xc3\xadticos corruptos?'
p4
sS'@daweshna@matildecorrea@politiquillo'
p5
S'@politiquillo @matildecorrea @daweshna Colaboramos contra la corrupci\xc3\xb3n? As\xc3\xad el pa\xc3\xads mejora! Haremos v\xc3\xaddeos de pol\xc3\xadticos corruptos?'
p6
sS'@ezecasella@magdalenam21@miguel1157'
p7
S'@miguel1157 @magdalenam21 @ezecasella Colaboramos contra la corrupci\xc3\xb3n? As\xc3\xad el pa\xc3\xads mejora! Haremos v\xc3\xaddeos de pol\xc3\xadticos corruptos?'
p8
sS'@carsua6@rbc_satelital@yiorick'
p9
S'@yiorick @rbc_satelital @carsua6 Colaboramos contra la corrupci\xc3\xb3n? As\xc3\xad el pa\xc3\xads mejora! Haremos v\xc3\xaddeos de pol\xc3\xadticos corruptos?'
p10
sS'@dixit_io@noti_bc@recomiendagt'
p11
S'@recomiendagt @noti_bc @dixit_io Colaboramos contra la corrupci\xc3\xb3n? As\xc3\xad el pa\xc3\xads mejora! Haremos v\xc3\xaddeos de pol\xc3\xadticos corruptos?'
p12
sS'@666mkultra@creativok@ka0219salazar'
p13
S'@ka0219salazar @creativok @666mkultra Colaboramos contra la corrupci\xc3\xb3n? As\xc3\xad el pa\xc3\xads mejora! Haremos v\xc3\xaddeos de pol\xc3\xadticos corruptos?'
p14
sS'@franmaop@gonzogm76@leticialetus'
p15
S'@leticialetus @gonzogm76 @franmaop Colaboramos contra la corrupci\xc3\xb3n? As\xc3\xad el pa\xc3\xads mejora! Haremos v\xc3\xaddeos de pol\xc3\xadticos corruptos?'
p16
sS'@888alita@dacalf@lilivette_bandy'
p17
S'@lilivette_bandy @dacalf @888alita Colaboramos contra la corrupci\xc3\xb3n? As\xc3\xad el pa\xc3\xads mejora! Haremos v\xc3\xaddeos de pol\xc3\xadticos corruptos?'
p18
sS'@bmwplaya@kafkava@walterdiaz0926'
p19
S'@walterdiaz0926 @kafkava @bmwplaya Colaboramos contra la corrupci\xc3\xb3n? As\xc3\xad el pa\xc3\xads mejora! Haremos v\xc3\xaddeos de pol\xc3\xadticos corruptos?'
p20
sS'@castellandw123@dsprocel@jucardicre'
p21
S'@jucardicre @dsprocel @castellandw123 Colaboramos contra la corrupci\xc3\xb3n? As\xc3\xad el pa\xc3\xads mejora! Haremos v\xc3\xaddeos de pol\xc3\xadticos corruptos?'
p22
sS'@kangurito27@magiru5deutz@viryi01'
p23
S'@viryi01 @magiru5deutz @kangurito27 Colaboramos contra la corrupci\xc3\xb3n? As\xc3\xad el pa\xc3\xads mejora! Haremos v\xc3\xaddeos de pol\xc3\xadticos corruptos?'
p24
sS'@abe081959@mmmbango@serchzg'
p25
S'@serchzg @mmmbango @abe081959 Colaboramos contra la corrupci\xc3\xb3n? As\xc3\xad el pa\xc3\xads mejora! Haremos v\xc3\xaddeos de pol\xc3\xadticos corruptos?'
p26
sS'@aaron_dso92@jamontero24@marypana1'
p27
S'@marypana1 @jamontero24 @aaron_dso92 Colaboramos contra la corrupci\xc3\xb3n? As\xc3\xad el pa\xc3\xads mejora! Haremos v\xc3\xaddeos de pol\xc3\xadticos corruptos?'
p28
sS'@castellandw123@elbenedetto@letra_p'
p29
S'@letra_p @elbenedetto @castellandw123 Colaboramos contra la corrupci\xc3\xb3n? As\xc3\xad el pa\xc3\xads mejora! Haremos v\xc3\xaddeos de pol\xc3\xadticos corruptos?'
p30
sS'@baas_marcela@diegoprada@essepaisano'
p31
S'@essepaisano @diegoprada @baas_marcela Colaboramos contra la corrupci\xc3\xb3n? As\xc3\xad el pa\xc3\xads mejora! Haremos v\xc3\xaddeos de pol\xc3\xadticos corruptos?'
p32
sS'@herrerarima@josesaturiogm@medioalt'
p33
S'@medioalt @josesaturiogm @herrerarima Colaboramos contra la corrupci\xc3\xb3n? As\xc3\xad el pa\xc3\xads mejora! Haremos v\xc3\xaddeos de pol\xc3\xadticos corruptos?'
p34
ss.