(dp0
S'solidarityBot'
p1
(dp2
S'@bruna_2112@jobperea@riendiar2'
p3
S'@riendiar2 @jobperea @bruna_2112 Colaboramos contra la corrupci\xc3\xb3n? Haremos v\xc3\xaddeos de pol\xc3\xadticos corruptos?'
p4
sS'@aguusjulieta@sofiferreyra11@sofiferreyra11'
p5
S'@sofiferreyra11 @sofiferreyra11 @aguusjulieta Colaboramos contra la corrupci\xc3\xb3n? Haremos v\xc3\xaddeos de pol\xc3\xadticos corruptos?'
p6
sS'@dolcanina@griseldapalermo@normymdq'
p7
S'@normymdq @griseldapalermo @dolcanina Colaboramos contra la corrupci\xc3\xb3n? Haremos v\xc3\xaddeos de pol\xc3\xadticos corruptos?'
p8
sS'@parnnet3@sumariumcom@susana_julia'
p9
S'@susana_julia @sumariumcom @parnnet3 Colaboramos contra la corrupci\xc3\xb3n? Haremos v\xc3\xaddeos de pol\xc3\xadticos corruptos?'
p10
sS'@jorgelhm75@nachocairo@nuevomedio'
p11
S'@nuevomedio @nachocairo @jorgelhm75 Colaboramos contra la corrupci\xc3\xb3n? Haremos v\xc3\xaddeos de pol\xc3\xadticos corruptos?'
p12
sS'@albinot68@gomez_tellezpab@tarkusveneficus'
p13
S'@tarkusveneficus @gomez_tellezpab @albinot68 Colaboramos contra la corrupci\xc3\xb3n? Haremos v\xc3\xaddeos de pol\xc3\xadticos corruptos?'
p14
sS'@eric_grunge@juanmelchr@rashaphotograyh'
p15
S'@rashaphotograyh @juanmelchr @eric_grunge Colaboramos contra la corrupci\xc3\xb3n? Haremos v\xc3\xaddeos de pol\xc3\xadticos corruptos?'
p16
sS'@ormaninnis@oscafepol@yess_portillo'
p17
S'@yess_portillo @oscafepol @ormaninnis Colaboramos contra la corrupci\xc3\xb3n? Haremos v\xc3\xaddeos de pol\xc3\xadticos corruptos?'
p18
sS'@informadorin@macorrea896@neu2806'
p19
S'@neu2806 @macorrea896 @informadorin Colaboramos contra la corrupci\xc3\xb3n? Haremos v\xc3\xaddeos de pol\xc3\xadticos corruptos?'
p20
sS'@pt_novaodessa@racrich@smbnovaf'
p21
S'@smbnovaf @racrich @pt_novaodessa Colaboramos contra la corrupci\xc3\xb3n? Haremos v\xc3\xaddeos de pol\xc3\xadticos corruptos?'
p22
sS'@carlosg_mezar@galenosmu@goonmotnsa'
p23
S'@goonmotnsa @galenosmu @carlosg_mezar Colaboramos contra la corrupci\xc3\xb3n? Haremos v\xc3\xaddeos de pol\xc3\xadticos corruptos?'
p24
sS'@crceloyalfaros@juan1205@noraalicia62'
p25
S'@noraalicia62 @juan1205 @crceloyalfaros Colaboramos contra la corrupci\xc3\xb3n? Haremos v\xc3\xaddeos de pol\xc3\xadticos corruptos?'
p26
sS'@abogadodeluzbel@fngonza@sergiociriglian'
p27
S'@sergiociriglian @fngonza @abogadodeluzbel Colaboramos contra la corrupci\xc3\xb3n? Haremos v\xc3\xaddeos de pol\xc3\xadticos corruptos?'
p28
sS'@assanrosa@nicolasventur15@oye_pau'
p29
S'@oye_pau @nicolasventur15 @assanrosa Colaboramos contra la corrupci\xc3\xb3n? Haremos v\xc3\xaddeos de pol\xc3\xadticos corruptos?'
p30
sS'@cma1810@elvigilante111@valentinrosales'
p31
S'@valentinrosales @elvigilante111 @cma1810 Colaboramos contra la corrupci\xc3\xb3n? Haremos v\xc3\xaddeos de pol\xc3\xadticos corruptos?'
p32
sS'@justrhoad@nachosalcedo79@tonatiureyes'
p33
S'@tonatiureyes @nachosalcedo79 @justrhoad Colaboramos contra la corrupci\xc3\xb3n? Haremos v\xc3\xaddeos de pol\xc3\xadticos corruptos?'
p34
sS'@alemauri7@luaarcano@silvabarrios'
p35
S'@silvabarrios @luaarcano @alemauri7 Colaboramos contra la corrupci\xc3\xb3n? Haremos v\xc3\xaddeos de pol\xc3\xadticos corruptos?'
p36
sS'@jf20mg@mcomesa89@meneses_jairo'
p37
S'@meneses_jairo @mcomesa89 @jf20mg Colaboramos contra la corrupci\xc3\xb3n? Haremos v\xc3\xaddeos de pol\xc3\xadticos corruptos?'
p38
sS'@alanisse@cesarvolter@jesuscp471'
p39
S'@jesuscp471 @cesarvolter @alanisse Colaboramos contra la corrupci\xc3\xb3n? Haremos v\xc3\xaddeos de pol\xc3\xadticos corruptos?'
p40
sS'@diosdelfutbollm@jarritodcerveza@olmansaenz'
p41
S'@olmansaenz @jarritodcerveza @diosdelfutbollm Colaboramos contra la corrupci\xc3\xb3n? Haremos v\xc3\xaddeos de pol\xc3\xadticos corruptos?'
p42
ss.