(dp0
S'gainBot'
p1
(dp2
S'@consultor46@freddyeskarlata@luucadb'
p3
S'@luucadb @freddyeskarlata @consultor46 Colaboramos contra la corrupci\xc3\xb3n? As\xc3\xad el pa\xc3\xads mejora! Haremos v\xc3\xaddeos de pol\xc3\xadticos corruptos?'
p4
sS'@caroandreaz@clickerjos@manudelnudo'
p5
S'@manudelnudo @clickerjos @caroandreaz Colaboramos contra la corrupci\xc3\xb3n? As\xc3\xad el pa\xc3\xads mejora! Haremos v\xc3\xaddeos de pol\xc3\xadticos corruptos?'
p6
sS'@juanercoreca@leexis15@rosa_rojita'
p7
S'@rosa_rojita @leexis15 @juanercoreca Colaboramos contra la corrupci\xc3\xb3n? As\xc3\xad el pa\xc3\xads mejora! Haremos v\xc3\xaddeos de pol\xc3\xadticos corruptos?'
p8
sS'@carlicerrutti@cesarpo33@ojocallejero'
p9
S'@ojocallejero @cesarpo33 @carlicerrutti Colaboramos contra la corrupci\xc3\xb3n? As\xc3\xad el pa\xc3\xads mejora! Haremos v\xc3\xaddeos de pol\xc3\xadticos corruptos?'
p10
sS'@boadoble@juan_rayon_7@patiodecaballos'
p11
S'@patiodecaballos @juan_rayon_7 @boadoble Colaboramos contra la corrupci\xc3\xb3n? As\xc3\xad el pa\xc3\xads mejora! Haremos v\xc3\xaddeos de pol\xc3\xadticos corruptos?'
p12
sS'@julio28632@ricardolebron3@ripp7r'
p13
S'@ripp7r @ricardolebron3 @julio28632 Colaboramos contra la corrupci\xc3\xb3n? As\xc3\xad el pa\xc3\xads mejora! Haremos v\xc3\xaddeos de pol\xc3\xadticos corruptos?'
p14
sS'@anarkiakaos@narnaldoamc@susavif'
p15
S'@susavif @narnaldoamc @anarkiakaos Colaboramos contra la corrupci\xc3\xb3n? As\xc3\xad el pa\xc3\xads mejora! Haremos v\xc3\xaddeos de pol\xc3\xadticos corruptos?'
p16
sS'@besitochocoment@notinactw@vasquezam2'
p17
S'@vasquezam2 @notinactw @besitochocoment Colaboramos contra la corrupci\xc3\xb3n? As\xc3\xad el pa\xc3\xads mejora! Haremos v\xc3\xaddeos de pol\xc3\xadticos corruptos?'
p18
sS'@chancos@colivagonza@milohe'
p19
S'@milohe @colivagonza @chancos Colaboramos contra la corrupci\xc3\xb3n? As\xc3\xad el pa\xc3\xads mejora! Haremos v\xc3\xaddeos de pol\xc3\xadticos corruptos?'
p20
sS'@faculuengo7@sordoiturriza@soy_el_vedo'
p21
S'@soy_el_vedo @sordoiturriza @faculuengo7 Colaboramos contra la corrupci\xc3\xb3n? As\xc3\xad el pa\xc3\xads mejora! Haremos v\xc3\xaddeos de pol\xc3\xadticos corruptos?'
p22
sS'@_josefinam@khalid1894@niicokrenz'
p23
S'@niicokrenz @khalid1894 @_josefinam Colaboramos contra la corrupci\xc3\xb3n? As\xc3\xad el pa\xc3\xads mejora! Haremos v\xc3\xaddeos de pol\xc3\xadticos corruptos?'
p24
sS'@mauroosotomayor@omerl7@rogilce'
p25
S'@rogilce @omerl7 @mauroosotomayor Colaboramos contra la corrupci\xc3\xb3n? As\xc3\xad el pa\xc3\xads mejora! Haremos v\xc3\xaddeos de pol\xc3\xadticos corruptos?'
p26
sS'@gusbostero_n12@paz_anu@ramicorrea10'
p27
S'@ramicorrea10 @paz_anu @gusbostero_n12 Colaboramos contra la corrupci\xc3\xb3n? As\xc3\xad el pa\xc3\xads mejora! Haremos v\xc3\xaddeos de pol\xc3\xadticos corruptos?'
p28
sS'@dyorkaef@nachoabba@vec19581'
p29
S'@vec19581 @nachoabba @dyorkaef Colaboramos contra la corrupci\xc3\xb3n? As\xc3\xad el pa\xc3\xads mejora! Haremos v\xc3\xaddeos de pol\xc3\xadticos corruptos?'
p30
sS'@lean2895@rgsfutbol@tzi_cl'
p31
S'@tzi_cl @rgsfutbol @lean2895 Colaboramos contra la corrupci\xc3\xb3n? As\xc3\xad el pa\xc3\xads mejora! Haremos v\xc3\xaddeos de pol\xc3\xadticos corruptos?'
p32
sS'@ectilon@emanuelcceresok@panchoo_rocha'
p33
S'@panchoo_rocha @emanuelcceresok @ectilon Colaboramos contra la corrupci\xc3\xb3n? As\xc3\xad el pa\xc3\xads mejora! Haremos v\xc3\xaddeos de pol\xc3\xadticos corruptos?'
p34
sS'@amenmm@elbigote8@jr10nico'
p35
S'@jr10nico @elbigote8 @amenmm Colaboramos contra la corrupci\xc3\xb3n? As\xc3\xad el pa\xc3\xads mejora! Haremos v\xc3\xaddeos de pol\xc3\xadticos corruptos?'
p36
sS'@juzgaremos@laurgozlez@triada32'
p37
S'@triada32 @laurgozlez @juzgaremos Colaboramos contra la corrupci\xc3\xb3n? As\xc3\xad el pa\xc3\xads mejora! Haremos v\xc3\xaddeos de pol\xc3\xadticos corruptos?'
p38
sS'@gasparin_60@ingluchin@lautigutierrez0'
p39
S'@lautigutierrez0 @ingluchin @gasparin_60 Colaboramos contra la corrupci\xc3\xb3n? As\xc3\xad el pa\xc3\xads mejora! Haremos v\xc3\xaddeos de pol\xc3\xadticos corruptos?'
p40
sS'@abelbocajrs@icecreampuq@ing_emar'
p41
S'@ing_emar @icecreampuq @abelbocajrs Colaboramos contra la corrupci\xc3\xb3n? As\xc3\xad el pa\xc3\xads mejora! Haremos v\xc3\xaddeos de pol\xc3\xadticos corruptos?'
p42
sS'@agosto162008@degnyelieel@dgremial'
p43
S'@dgremial @degnyelieel @agosto162008 Colaboramos contra la corrupci\xc3\xb3n? As\xc3\xad el pa\xc3\xads mejora! Haremos v\xc3\xaddeos de pol\xc3\xadticos corruptos?'
p44
sS'@alejandrorencel@calorepablo@elsadabro'
p45
S'@elsadabro @calorepablo @alejandrorencel Colaboramos contra la corrupci\xc3\xb3n? As\xc3\xad el pa\xc3\xads mejora! Haremos v\xc3\xaddeos de pol\xc3\xadticos corruptos?'
p46
sS'@angelmoran1957@noticiariosant@wmsg70'
p47
S'@wmsg70 @noticiariosant @angelmoran1957 Colaboramos contra la corrupci\xc3\xb3n? As\xc3\xad el pa\xc3\xads mejora! Haremos v\xc3\xaddeos de pol\xc3\xadticos corruptos?'
p48
sS'@niicocherry@pepitomonchito1@tutogol'
p49
S'@tutogol @pepitomonchito1 @niicocherry Colaboramos contra la corrupci\xc3\xb3n? As\xc3\xad el pa\xc3\xads mejora! Haremos v\xc3\xaddeos de pol\xc3\xadticos corruptos?'
p50
sS'@claubrok3@sandralsoy@scarobert'
p51
S'@scarobert @sandralsoy @claubrok3 Colaboramos contra la corrupci\xc3\xb3n? As\xc3\xad el pa\xc3\xads mejora! Haremos v\xc3\xaddeos de pol\xc3\xadticos corruptos?'
p52
sS'@aiala83191@dontony10@unquijote'
p53
S'@unquijote @dontony10 @aiala83191 Colaboramos contra la corrupci\xc3\xb3n? As\xc3\xad el pa\xc3\xads mejora! Haremos v\xc3\xaddeos de pol\xc3\xadticos corruptos?'
p54
sS'@ghanito@jero_cau@rolan_2'
p55
S'@rolan_2 @jero_cau @ghanito Colaboramos contra la corrupci\xc3\xb3n? As\xc3\xad el pa\xc3\xads mejora! Haremos v\xc3\xaddeos de pol\xc3\xadticos corruptos?'
p56
sS'@judithvv28@mariadelozada@qacmaurito'
p57
S'@qacmaurito @mariadelozada @judithvv28 Colaboramos contra la corrupci\xc3\xb3n? As\xc3\xad el pa\xc3\xads mejora! Haremos v\xc3\xaddeos de pol\xc3\xadticos corruptos?'
p58
sS'@armakdeodelot@emaigarza43@lecharreo'
p59
S'@lecharreo @emaigarza43 @armakdeodelot Colaboramos contra la corrupci\xc3\xb3n? As\xc3\xad el pa\xc3\xads mejora! Haremos v\xc3\xaddeos de pol\xc3\xadticos corruptos?'
p60
sS'@agus94tin@joaquin_morenoo@tabarezolga'
p61
S'@tabarezolga @joaquin_morenoo @agus94tin Colaboramos contra la corrupci\xc3\xb3n? As\xc3\xad el pa\xc3\xads mejora! Haremos v\xc3\xaddeos de pol\xc3\xadticos corruptos?'
p62
sS'@lecvegas@studioingenier1@tambezuri'
p63
S'@tambezuri @studioingenier1 @lecvegas Colaboramos contra la corrupci\xc3\xb3n? As\xc3\xad el pa\xc3\xads mejora! Haremos v\xc3\xaddeos de pol\xc3\xadticos corruptos?'
p64
ss.