(dp0
S'lossBot'
p1
(dp2
S'@cvc_v@shirley22_13@tamarajudis'
p3
S'@tamarajudis @shirley22_13 @cvc_v Colaboramos contra la corrupci\xc3\xb3n? Si no, el pa\xc3\xads sufrir\xc3\xa1! Haremos v\xc3\xaddeos de pol\xc3\xadticos corruptos?'
p4
sS'@ber_ale@dimewhy@lokillapachy'
p5
S'@lokillapachy @dimewhy @ber_ale Colaboramos contra la corrupci\xc3\xb3n? Si no, el pa\xc3\xads sufrir\xc3\xa1! Haremos v\xc3\xaddeos de pol\xc3\xadticos corruptos?'
p6
sS'@alu1545@margaiges@rosalacuerva'
p7
S'@rosalacuerva @margaiges @alu1545 Colaboramos contra la corrupci\xc3\xb3n? Si no, el pa\xc3\xads sufrir\xc3\xa1! Haremos v\xc3\xaddeos de pol\xc3\xadticos corruptos?'
p8
sS'@fran_lp7@joseleonsensei@licluluhp'
p9
S'@licluluhp @joseleonsensei @fran_lp7 Colaboramos contra la corrupci\xc3\xb3n? Si no, el pa\xc3\xads sufrir\xc3\xa1! Haremos v\xc3\xaddeos de pol\xc3\xadticos corruptos?'
p10
sS'@jemora70@mabby64@nitanacido_'
p11
S'@nitanacido_ @mabby64 @jemora70 Colaboramos contra la corrupci\xc3\xb3n? Si no, el pa\xc3\xads sufrir\xc3\xa1! Haremos v\xc3\xaddeos de pol\xc3\xadticos corruptos?'
p12
sS'@bruno_m21@erenriquez@flaviopaul'
p13
S'@flaviopaul @erenriquez @bruno_m21 Colaboramos contra la corrupci\xc3\xb3n? Si no, el pa\xc3\xads sufrir\xc3\xa1! Haremos v\xc3\xaddeos de pol\xc3\xadticos corruptos?'
p14
sS'@cristinaimt@diegol_07@isaac_oz'
p15
S'@isaac_oz @diegol_07 @cristinaimt Colaboramos contra la corrupci\xc3\xb3n? Si no, el pa\xc3\xads sufrir\xc3\xa1! Haremos v\xc3\xaddeos de pol\xc3\xadticos corruptos?'
p16
sS'@89santi89@amercjor@pablopueblouno'
p17
S'@pablopueblouno @amercjor @89santi89 Colaboramos contra la corrupci\xc3\xb3n? Si no, el pa\xc3\xads sufrir\xc3\xa1! Haremos v\xc3\xaddeos de pol\xc3\xadticos corruptos?'
p18
sS'@eapablo_16@informatesv@sergiochar'
p19
S'@sergiochar @informatesv @eapablo_16 Colaboramos contra la corrupci\xc3\xb3n? Si no, el pa\xc3\xads sufrir\xc3\xa1! Haremos v\xc3\xaddeos de pol\xc3\xadticos corruptos?'
p20
sS'@adriro77@ladyreedd@linalinera'
p21
S'@linalinera @ladyreedd @adriro77 Colaboramos contra la corrupci\xc3\xb3n? Si no, el pa\xc3\xads sufrir\xc3\xa1! Haremos v\xc3\xaddeos de pol\xc3\xadticos corruptos?'
p22
sS'@_oneil9_@santipastrana@yameni_'
p23
S'@yameni_ @santipastrana @_oneil9_ Colaboramos contra la corrupci\xc3\xb3n? Si no, el pa\xc3\xads sufrir\xc3\xa1! Haremos v\xc3\xaddeos de pol\xc3\xadticos corruptos?'
p24
sS'@aerview@gaboga26@sandraboix'
p25
S'@sandraboix @gaboga26 @aerview Colaboramos contra la corrupci\xc3\xb3n? Si no, el pa\xc3\xads sufrir\xc3\xa1! Haremos v\xc3\xaddeos de pol\xc3\xadticos corruptos?'
p26
sS'@andresc_44@ivantechy@totxobea'
p27
S'@totxobea @ivantechy @andresc_44 Colaboramos contra la corrupci\xc3\xb3n? Si no, el pa\xc3\xads sufrir\xc3\xa1! Haremos v\xc3\xaddeos de pol\xc3\xadticos corruptos?'
p28
sS'@_officialpress@clao_92@gscazul14'
p29
S'@gscazul14 @clao_92 @_officialpress Colaboramos contra la corrupci\xc3\xb3n? Si no, el pa\xc3\xads sufrir\xc3\xa1! Haremos v\xc3\xaddeos de pol\xc3\xadticos corruptos?'
p30
sS'@drlaev@fredinhogaucho@ronivasco11'
p31
S'@ronivasco11 @fredinhogaucho @drlaev Colaboramos contra la corrupci\xc3\xb3n? Si no, el pa\xc3\xads sufrir\xc3\xa1! Haremos v\xc3\xaddeos de pol\xc3\xadticos corruptos?'
p32
sS'@conchitajh@gemacouto@mineralcover'
p33
S'@mineralcover @gemacouto @conchitajh Colaboramos contra la corrupci\xc3\xb3n? Si no, el pa\xc3\xads sufrir\xc3\xa1! Haremos v\xc3\xaddeos de pol\xc3\xadticos corruptos?'
p34
ss.