(dp0
S'gainBot'
p1
(dp2
S'@defamilyway@el3rull@mientes0033'
p3
S'@mientes0033 @el3rull @defamilyway Colaboramos contra la corrupci\xc3\xb3n? As\xc3\xad el pa\xc3\xads mejora! Haremos v\xc3\xaddeos de pol\xc3\xadticos corruptos?'
p4
sS'@bgutman2@citimednia@sasorired22'
p5
S'@sasorired22 @citimednia @bgutman2 Colaboramos contra la corrupci\xc3\xb3n? As\xc3\xad el pa\xc3\xads mejora! Haremos v\xc3\xaddeos de pol\xc3\xadticos corruptos?'
p6
sS'@inhakiluke@inirtr@new_caracas'
p7
S'@new_caracas @inirtr @inhakiluke Colaboramos contra la corrupci\xc3\xb3n? As\xc3\xad el pa\xc3\xads mejora! Haremos v\xc3\xaddeos de pol\xc3\xadticos corruptos?'
p8
sS'@albertitotr@guilleg99@viejocasale'
p9
S'@viejocasale @guilleg99 @albertitotr Colaboramos contra la corrupci\xc3\xb3n? As\xc3\xad el pa\xc3\xads mejora! Haremos v\xc3\xaddeos de pol\xc3\xadticos corruptos?'
p10
sS'@huchile@jesg22@masagarca1'
p11
S'@masagarca1 @jesg22 @huchile Colaboramos contra la corrupci\xc3\xb3n? As\xc3\xad el pa\xc3\xads mejora! Haremos v\xc3\xaddeos de pol\xc3\xadticos corruptos?'
p12
sS'@angomrue@atenhea1@luisriveralinar'
p13
S'@luisriveralinar @atenhea1 @angomrue Colaboramos contra la corrupci\xc3\xb3n? As\xc3\xad el pa\xc3\xads mejora! Haremos v\xc3\xaddeos de pol\xc3\xadticos corruptos?'
p14
sS'@waehlah@waehlah@yonguayintongpe'
p15
S'@yonguayintongpe @waehlah @waehlah Colaboramos contra la corrupci\xc3\xb3n? As\xc3\xad el pa\xc3\xads mejora! Haremos v\xc3\xaddeos de pol\xc3\xadticos corruptos?'
p16
sS'@cplatam@ejavierincon@obedruizguerra'
p17
S'@obedruizguerra @ejavierincon @cplatam Colaboramos contra la corrupci\xc3\xb3n? As\xc3\xad el pa\xc3\xads mejora! Haremos v\xc3\xaddeos de pol\xc3\xadticos corruptos?'
p18
sS'@daniadebla@jaasoqui@sararui14376884'
p19
S'@sararui14376884 @jaasoqui @daniadebla Colaboramos contra la corrupci\xc3\xb3n? As\xc3\xad el pa\xc3\xads mejora! Haremos v\xc3\xaddeos de pol\xc3\xadticos corruptos?'
p20
sS'@_killstrelok@adrnffuuentes@debate_21'
p21
S'@debate_21 @adrnffuuentes @_killstrelok Colaboramos contra la corrupci\xc3\xb3n? As\xc3\xad el pa\xc3\xads mejora! Haremos v\xc3\xaddeos de pol\xc3\xadticos corruptos?'
p22
sS'@gaaby@misteri1963@roderich90'
p23
S'@roderich90 @misteri1963 @gaaby Colaboramos contra la corrupci\xc3\xb3n? As\xc3\xad el pa\xc3\xads mejora! Haremos v\xc3\xaddeos de pol\xc3\xadticos corruptos?'
p24
sS'@gemon68@mariojpc@mariporrua'
p25
S'@mariporrua @mariojpc @gemon68 Colaboramos contra la corrupci\xc3\xb3n? As\xc3\xad el pa\xc3\xads mejora! Haremos v\xc3\xaddeos de pol\xc3\xadticos corruptos?'
p26
sS'@baezfer@lucioramirez16@spuky5512'
p27
S'@spuky5512 @lucioramirez16 @baezfer Colaboramos contra la corrupci\xc3\xb3n? As\xc3\xad el pa\xc3\xads mejora! Haremos v\xc3\xaddeos de pol\xc3\xadticos corruptos?'
p28
sS'@411emilio@grazzy57@peiuygp'
p29
S'@peiuygp @grazzy57 @411emilio Colaboramos contra la corrupci\xc3\xb3n? As\xc3\xad el pa\xc3\xads mejora! Haremos v\xc3\xaddeos de pol\xc3\xadticos corruptos?'
p30
sS'@adriiaan10@capeco2@titojavito96'
p31
S'@titojavito96 @capeco2 @adriiaan10 Colaboramos contra la corrupci\xc3\xb3n? As\xc3\xad el pa\xc3\xads mejora! Haremos v\xc3\xaddeos de pol\xc3\xadticos corruptos?'
p32
sS'@egeamarcos@informadorpubl@popularvela'
p33
S'@popularvela @informadorpubl @egeamarcos Colaboramos contra la corrupci\xc3\xb3n? As\xc3\xad el pa\xc3\xads mejora! Haremos v\xc3\xaddeos de pol\xc3\xadticos corruptos?'
p34
sS'@eldiarioes@iruyacom@jimeneses59'
p35
S'@jimeneses59 @iruyacom @eldiarioes Colaboramos contra la corrupci\xc3\xb3n? As\xc3\xad el pa\xc3\xads mejora! Haremos v\xc3\xaddeos de pol\xc3\xadticos corruptos?'
p36
sS'@fe_sa_sa@josealquebla@titoshivan'
p37
S'@titoshivan @josealquebla @fe_sa_sa Colaboramos contra la corrupci\xc3\xb3n? As\xc3\xad el pa\xc3\xads mejora! Haremos v\xc3\xaddeos de pol\xc3\xadticos corruptos?'
p38
sS'@cu3dots@pepenavarretetu@vimoro69'
p39
S'@vimoro69 @pepenavarretetu @cu3dots Colaboramos contra la corrupci\xc3\xb3n? As\xc3\xad el pa\xc3\xads mejora! Haremos v\xc3\xaddeos de pol\xc3\xadticos corruptos?'
p40
sS'@adrianamoranok@durobelinda@podeis2'
p41
S'@podeis2 @durobelinda @adrianamoranok Colaboramos contra la corrupci\xc3\xb3n? As\xc3\xad el pa\xc3\xads mejora! Haremos v\xc3\xaddeos de pol\xc3\xadticos corruptos?'
p42
sS'@ezequielciro@gustemsj@simon_bolivar69'
p43
S'@simon_bolivar69 @gustemsj @ezequielciro Colaboramos contra la corrupci\xc3\xb3n? As\xc3\xad el pa\xc3\xads mejora! Haremos v\xc3\xaddeos de pol\xc3\xadticos corruptos?'
p44
sS'@bsnajder96carp@cacira87@sin_miedos'
p45
S'@sin_miedos @cacira87 @bsnajder96carp Colaboramos contra la corrupci\xc3\xb3n? As\xc3\xad el pa\xc3\xads mejora! Haremos v\xc3\xaddeos de pol\xc3\xadticos corruptos?'
p46
sS'@esmirra64@k_sophiie@kelvysvasquez'
p47
S'@kelvysvasquez @k_sophiie @esmirra64 Colaboramos contra la corrupci\xc3\xb3n? As\xc3\xad el pa\xc3\xads mejora! Haremos v\xc3\xaddeos de pol\xc3\xadticos corruptos?'
p48
sS'@clarariveros@troderic@vandererbez'
p49
S'@vandererbez @troderic @clarariveros Colaboramos contra la corrupci\xc3\xb3n? As\xc3\xad el pa\xc3\xads mejora! Haremos v\xc3\xaddeos de pol\xc3\xadticos corruptos?'
p50
sS'@ch11n00@javieralandes@pelonata2015'
p51
S'@pelonata2015 @javieralandes @ch11n00 Colaboramos contra la corrupci\xc3\xb3n? As\xc3\xad el pa\xc3\xads mejora! Haremos v\xc3\xaddeos de pol\xc3\xadticos corruptos?'
p52
sS'@jmvila49@miliojmn@pcpsol'
p53
S'@pcpsol @miliojmn @jmvila49 Colaboramos contra la corrupci\xc3\xb3n? As\xc3\xad el pa\xc3\xads mejora! Haremos v\xc3\xaddeos de pol\xc3\xadticos corruptos?'
p54
sS'@algonfdez@juangratiniano@serglionel'
p55
S'@serglionel @juangratiniano @algonfdez Colaboramos contra la corrupci\xc3\xb3n? As\xc3\xad el pa\xc3\xads mejora! Haremos v\xc3\xaddeos de pol\xc3\xadticos corruptos?'
p56
sS'@davidyangu@esterboixadera@evabelmonte'
p57
S'@evabelmonte @esterboixadera @davidyangu Colaboramos contra la corrupci\xc3\xb3n? As\xc3\xad el pa\xc3\xads mejora! Haremos v\xc3\xaddeos de pol\xc3\xadticos corruptos?'
p58
sS'@algonfdez@sijuntspodem@vampycatman'
p59
S'@vampycatman @sijuntspodem @algonfdez Colaboramos contra la corrupci\xc3\xb3n? As\xc3\xad el pa\xc3\xads mejora! Haremos v\xc3\xaddeos de pol\xc3\xadticos corruptos?'
p60
sS'@escamillavicem@gonsigonsi@insistir'
p61
S'@insistir @gonsigonsi @escamillavicem Colaboramos contra la corrupci\xc3\xb3n? As\xc3\xad el pa\xc3\xads mejora! Haremos v\xc3\xaddeos de pol\xc3\xadticos corruptos?'
p62
sS'@gsg4888@magee_witch@simonandluyc'
p63
S'@simonandluyc @magee_witch @gsg4888 Colaboramos contra la corrupci\xc3\xb3n? As\xc3\xad el pa\xc3\xads mejora! Haremos v\xc3\xaddeos de pol\xc3\xadticos corruptos?'
p64
sS'@esternina_@ferigom69@jowin777'
p65
S'@jowin777 @ferigom69 @esternina_ Colaboramos contra la corrupci\xc3\xb3n? As\xc3\xad el pa\xc3\xads mejora! Haremos v\xc3\xaddeos de pol\xc3\xadticos corruptos?'
p66
sS'@denisseg_m@jcristianr@veonoticias_'
p67
S'@veonoticias_ @jcristianr @denisseg_m Colaboramos contra la corrupci\xc3\xb3n? As\xc3\xad el pa\xc3\xads mejora! Haremos v\xc3\xaddeos de pol\xc3\xadticos corruptos?'
p68
sS'@eldiariocv@exeeeecarp@mely_ochentas'
p69
S'@mely_ochentas @exeeeecarp @eldiariocv Colaboramos contra la corrupci\xc3\xb3n? As\xc3\xad el pa\xc3\xads mejora! Haremos v\xc3\xaddeos de pol\xc3\xadticos corruptos?'
p70
sS'@joansinmiedo@paula4626@postmoe'
p71
S'@postmoe @paula4626 @joansinmiedo Colaboramos contra la corrupci\xc3\xb3n? As\xc3\xad el pa\xc3\xads mejora! Haremos v\xc3\xaddeos de pol\xc3\xadticos corruptos?'
p72
sS'@amatptu@lolojop@somosoaxaca'
p73
S'@somosoaxaca @lolojop @amatptu Colaboramos contra la corrupci\xc3\xb3n? As\xc3\xad el pa\xc3\xads mejora! Haremos v\xc3\xaddeos de pol\xc3\xadticos corruptos?'
p74
sS'@elcanalverde@girotomate@pacoperamos'
p75
S'@pacoperamos @girotomate @elcanalverde Colaboramos contra la corrupci\xc3\xb3n? As\xc3\xad el pa\xc3\xads mejora! Haremos v\xc3\xaddeos de pol\xc3\xadticos corruptos?'
p76
sS'@franreyes3@johnyq70@johnyq70'
p77
S'@johnyq70 @johnyq70 @franreyes3 Colaboramos contra la corrupci\xc3\xb3n? As\xc3\xad el pa\xc3\xads mejora! Haremos v\xc3\xaddeos de pol\xc3\xadticos corruptos?'
p78
sS'@anvera@gloria20155@joseacontreras'
p79
S'@joseacontreras @gloria20155 @anvera Colaboramos contra la corrupci\xc3\xb3n? As\xc3\xad el pa\xc3\xads mejora! Haremos v\xc3\xaddeos de pol\xc3\xadticos corruptos?'
p80
sS'@eltitotivi@jorge_lavado19@rubenarino'
p81
S'@rubenarino @jorge_lavado19 @eltitotivi Colaboramos contra la corrupci\xc3\xb3n? As\xc3\xad el pa\xc3\xads mejora! Haremos v\xc3\xaddeos de pol\xc3\xadticos corruptos?'
p82
sS'@__gonzalos__@petismofobia@viturbio'
p83
S'@viturbio @petismofobia @__gonzalos__ Colaboramos contra la corrupci\xc3\xb3n? As\xc3\xad el pa\xc3\xads mejora! Haremos v\xc3\xaddeos de pol\xc3\xadticos corruptos?'
p84
sS'@flikxxi@nosinmayonesa@resetreboot'
p85
S'@resetreboot @nosinmayonesa @flikxxi Colaboramos contra la corrupci\xc3\xb3n? As\xc3\xad el pa\xc3\xads mejora! Haremos v\xc3\xaddeos de pol\xc3\xadticos corruptos?'
p86
sS'@aztlan04@mavega78@robertodesachy'
p87
S'@robertodesachy @mavega78 @aztlan04 Colaboramos contra la corrupci\xc3\xb3n? As\xc3\xad el pa\xc3\xads mejora! Haremos v\xc3\xaddeos de pol\xc3\xadticos corruptos?'
p88
sS'@ferreyxd@jmsteinbusch@latinospain1975'
p89
S'@latinospain1975 @jmsteinbusch @ferreyxd Colaboramos contra la corrupci\xc3\xb3n? As\xc3\xad el pa\xc3\xads mejora! Haremos v\xc3\xaddeos de pol\xc3\xadticos corruptos?'
p90
sS'@araceli0007@cflaecsh@jlta2258'
p91
S'@jlta2258 @cflaecsh @araceli0007 Colaboramos contra la corrupci\xc3\xb3n? As\xc3\xad el pa\xc3\xads mejora! Haremos v\xc3\xaddeos de pol\xc3\xadticos corruptos?'
p92
sS'@compavendetta_4@j5uanh@veronikhank'
p93
S'@veronikhank @j5uanh @compavendetta_4 Colaboramos contra la corrupci\xc3\xb3n? As\xc3\xad el pa\xc3\xads mejora! Haremos v\xc3\xaddeos de pol\xc3\xadticos corruptos?'
p94
sS'@barquereom@lufermi@sergiofloresron'
p95
S'@sergiofloresron @lufermi @barquereom Colaboramos contra la corrupci\xc3\xb3n? As\xc3\xad el pa\xc3\xads mejora! Haremos v\xc3\xaddeos de pol\xc3\xadticos corruptos?'
p96
sS'@amadeovalls@mh_peralta@puratura'
p97
S'@puratura @mh_peralta @amadeovalls Colaboramos contra la corrupci\xc3\xb3n? As\xc3\xad el pa\xc3\xads mejora! Haremos v\xc3\xaddeos de pol\xc3\xadticos corruptos?'
p98
sS'@aidairjoshua@bluegilly@compliance1981'
p99
S'@compliance1981 @bluegilly @aidairjoshua Colaboramos contra la corrupci\xc3\xb3n? As\xc3\xad el pa\xc3\xads mejora! Haremos v\xc3\xaddeos de pol\xc3\xadticos corruptos?'
p100
sS'@eilynnee@flordeicaribe@ivonne_zapatac'
p101
S'@ivonne_zapatac @flordeicaribe @eilynnee Colaboramos contra la corrupci\xc3\xb3n? As\xc3\xad el pa\xc3\xads mejora! Haremos v\xc3\xaddeos de pol\xc3\xadticos corruptos?'
p102
sS'@anallames@jesusiri@latinospain1975'
p103
S'@latinospain1975 @jesusiri @anallames Colaboramos contra la corrupci\xc3\xb3n? As\xc3\xad el pa\xc3\xads mejora! Haremos v\xc3\xaddeos de pol\xc3\xadticos corruptos?'
p104
sS'@adriansdc@beriahsellers@nbride2'
p105
S'@nbride2 @beriahsellers @adriansdc Colaboramos contra la corrupci\xc3\xb3n? As\xc3\xad el pa\xc3\xads mejora! Haremos v\xc3\xaddeos de pol\xc3\xadticos corruptos?'
p106
sS'@legalsol@miquelo4ever@paola13_rivas'
p107
S'@paola13_rivas @miquelo4ever @legalsol Colaboramos contra la corrupci\xc3\xb3n? As\xc3\xad el pa\xc3\xads mejora! Haremos v\xc3\xaddeos de pol\xc3\xadticos corruptos?'
p108
sS'@david_iure@jorge_villoria@portupueblo'
p109
S'@portupueblo @jorge_villoria @david_iure Colaboramos contra la corrupci\xc3\xb3n? As\xc3\xad el pa\xc3\xads mejora! Haremos v\xc3\xaddeos de pol\xc3\xadticos corruptos?'
p110
sS'@dejamon@i_g_g_a@zoolandercab'
p111
S'@zoolandercab @i_g_g_a @dejamon Colaboramos contra la corrupci\xc3\xb3n? As\xc3\xad el pa\xc3\xads mejora! Haremos v\xc3\xaddeos de pol\xc3\xadticos corruptos?'
p112
sS'@delia_deviez@juanmitatoti@lrzos'
p113
S'@lrzos @juanmitatoti @delia_deviez Colaboramos contra la corrupci\xc3\xb3n? As\xc3\xad el pa\xc3\xads mejora! Haremos v\xc3\xaddeos de pol\xc3\xadticos corruptos?'
p114
sS'@bismar1715@fran0@var15o'
p115
S'@var15o @fran0 @bismar1715 Colaboramos contra la corrupci\xc3\xb3n? As\xc3\xad el pa\xc3\xads mejora! Haremos v\xc3\xaddeos de pol\xc3\xadticos corruptos?'
p116
sS'@designwiressel@fernvo@ufredoborbor'
p117
S'@ufredoborbor @fernvo @designwiressel Colaboramos contra la corrupci\xc3\xb3n? As\xc3\xad el pa\xc3\xads mejora! Haremos v\xc3\xaddeos de pol\xc3\xadticos corruptos?'
p118
sS'@alertaperuhoy@concepcion946@ralpineda'
p119
S'@ralpineda @concepcion946 @alertaperuhoy Colaboramos contra la corrupci\xc3\xb3n? As\xc3\xad el pa\xc3\xads mejora! Haremos v\xc3\xaddeos de pol\xc3\xadticos corruptos?'
p120
sS'@ferminmm@manucabreado@tenesmo'
p121
S'@tenesmo @manucabreado @ferminmm Colaboramos contra la corrupci\xc3\xb3n? As\xc3\xad el pa\xc3\xads mejora! Haremos v\xc3\xaddeos de pol\xc3\xadticos corruptos?'
p122
sS'@bvarina@perijillo@ximearcos'
p123
S'@ximearcos @perijillo @bvarina Colaboramos contra la corrupci\xc3\xb3n? As\xc3\xad el pa\xc3\xads mejora! Haremos v\xc3\xaddeos de pol\xc3\xadticos corruptos?'
p124
sS'@diegovallado@jcquepaisa@mscottmeeerts'
p125
S'@mscottmeeerts @jcquepaisa @diegovallado Colaboramos contra la corrupci\xc3\xb3n? As\xc3\xad el pa\xc3\xads mejora! Haremos v\xc3\xaddeos de pol\xc3\xadticos corruptos?'
p126
sS'@ivanalvarezast@m_delaiglesia@piolinna'
p127
S'@piolinna @m_delaiglesia @ivanalvarezast Colaboramos contra la corrupci\xc3\xb3n? As\xc3\xad el pa\xc3\xads mejora! Haremos v\xc3\xaddeos de pol\xc3\xadticos corruptos?'
p128
sS'@educadorpedro@euribem@fachalover'
p129
S'@fachalover @euribem @educadorpedro Colaboramos contra la corrupci\xc3\xb3n? As\xc3\xad el pa\xc3\xads mejora! Haremos v\xc3\xaddeos de pol\xc3\xadticos corruptos?'
p130
sS'@abilio_juan@felipenanno@notigerencial'
p131
S'@notigerencial @felipenanno @abilio_juan Colaboramos contra la corrupci\xc3\xb3n? As\xc3\xad el pa\xc3\xads mejora! Haremos v\xc3\xaddeos de pol\xc3\xadticos corruptos?'
p132
sS'@jack_daniels@jcalvo_@rhosol'
p133
S'@rhosol @jcalvo_ @jack_daniels Colaboramos contra la corrupci\xc3\xb3n? As\xc3\xad el pa\xc3\xads mejora! Haremos v\xc3\xaddeos de pol\xc3\xadticos corruptos?'
p134
sS'@dndfnnf@laboralpodemos@rosanahn'
p135
S'@rosanahn @laboralpodemos @dndfnnf Colaboramos contra la corrupci\xc3\xb3n? As\xc3\xad el pa\xc3\xads mejora! Haremos v\xc3\xaddeos de pol\xc3\xadticos corruptos?'
p136
sS'@calvito1959@chiracotee@donnav70'
p137
S'@donnav70 @chiracotee @calvito1959 Colaboramos contra la corrupci\xc3\xb3n? As\xc3\xad el pa\xc3\xads mejora! Haremos v\xc3\xaddeos de pol\xc3\xadticos corruptos?'
p138
sS'@anakonar@carolinapg_03@collana_a'
p139
S'@collana_a @carolinapg_03 @anakonar Colaboramos contra la corrupci\xc3\xb3n? As\xc3\xad el pa\xc3\xads mejora! Haremos v\xc3\xaddeos de pol\xc3\xadticos corruptos?'
p140
sS'@edmunrosas@esmeraldaannet@omarbula'
p141
S'@omarbula @esmeraldaannet @edmunrosas Colaboramos contra la corrupci\xc3\xb3n? As\xc3\xad el pa\xc3\xads mejora! Haremos v\xc3\xaddeos de pol\xc3\xadticos corruptos?'
p142
sS'@clicerasb@ismaelgm1994@tomj0ad'
p143
S'@tomj0ad @ismaelgm1994 @clicerasb Colaboramos contra la corrupci\xc3\xb3n? As\xc3\xad el pa\xc3\xads mejora! Haremos v\xc3\xaddeos de pol\xc3\xadticos corruptos?'
p144
sS'@a_meilan@nuno_rodrigo5@ruizsanmiguel'
p145
S'@ruizsanmiguel @nuno_rodrigo5 @a_meilan Colaboramos contra la corrupci\xc3\xb3n? As\xc3\xad el pa\xc3\xads mejora! Haremos v\xc3\xaddeos de pol\xc3\xadticos corruptos?'
p146
sS'@albermadriz@guirispain@mkucho'
p147
S'@mkucho @guirispain @albermadriz Colaboramos contra la corrupci\xc3\xb3n? As\xc3\xad el pa\xc3\xads mejora! Haremos v\xc3\xaddeos de pol\xc3\xadticos corruptos?'
p148
sS'@david2095_sport@masagarca1@vernicaro1'
p149
S'@vernicaro1 @masagarca1 @david2095_sport Colaboramos contra la corrupci\xc3\xb3n? As\xc3\xad el pa\xc3\xads mejora! Haremos v\xc3\xaddeos de pol\xc3\xadticos corruptos?'
p150
sS'@ifclocura@ifclocura@manilena50'
p151
S'@manilena50 @ifclocura @ifclocura Colaboramos contra la corrupci\xc3\xb3n? As\xc3\xad el pa\xc3\xads mejora! Haremos v\xc3\xaddeos de pol\xc3\xadticos corruptos?'
p152
sS'@jlda88@reflejo3c@somosvelilla'
p153
S'@somosvelilla @reflejo3c @jlda88 Colaboramos contra la corrupci\xc3\xb3n? As\xc3\xad el pa\xc3\xads mejora! Haremos v\xc3\xaddeos de pol\xc3\xadticos corruptos?'
p154
sS'@carcoma10@palmerodri@rsixtoiglesias'
p155
S'@rsixtoiglesias @palmerodri @carcoma10 Colaboramos contra la corrupci\xc3\xb3n? As\xc3\xad el pa\xc3\xads mejora! Haremos v\xc3\xaddeos de pol\xc3\xadticos corruptos?'
p156
sS'@bastardoquotes@cliomas@hoyesnoticia'
p157
S'@hoyesnoticia @cliomas @bastardoquotes Colaboramos contra la corrupci\xc3\xb3n? As\xc3\xad el pa\xc3\xads mejora! Haremos v\xc3\xaddeos de pol\xc3\xadticos corruptos?'
p158
sS'@fanetin@franurbina2011@springsteen_81'
p159
S'@springsteen_81 @franurbina2011 @fanetin Colaboramos contra la corrupci\xc3\xb3n? As\xc3\xad el pa\xc3\xads mejora! Haremos v\xc3\xaddeos de pol\xc3\xadticos corruptos?'
p160
sS'@bogotasinmiedo@cantutrade@divafloss'
p161
S'@divafloss @cantutrade @bogotasinmiedo Colaboramos contra la corrupci\xc3\xb3n? As\xc3\xad el pa\xc3\xads mejora! Haremos v\xc3\xaddeos de pol\xc3\xadticos corruptos?'
p162
sS'@anampastor@juandelapoza@rpf1771'
p163
S'@rpf1771 @juandelapoza @anampastor Colaboramos contra la corrupci\xc3\xb3n? As\xc3\xad el pa\xc3\xads mejora! Haremos v\xc3\xaddeos de pol\xc3\xadticos corruptos?'
p164
sS'@anguilaf@negtelfhj1@nievesceuta'
p165
S'@nievesceuta @negtelfhj1 @anguilaf Colaboramos contra la corrupci\xc3\xb3n? As\xc3\xad el pa\xc3\xads mejora! Haremos v\xc3\xaddeos de pol\xc3\xadticos corruptos?'
p166
ss.