(dp0
S'solidarityBot'
p1
(dp2
S'@agustinaacabj10@gjesuscastillo@morena_paraiso'
p3
S'@morena_paraiso @gjesuscastillo @agustinaacabj10 Colaboramos contra la corrupci\xc3\xb3n? Haremos v\xc3\xaddeos de pol\xc3\xadticos corruptos?'
p4
sS'@elglobooscuro@javicatalpa@maguejacob'
p5
S'@maguejacob @javicatalpa @elglobooscuro Colaboramos contra la corrupci\xc3\xb3n? Haremos v\xc3\xaddeos de pol\xc3\xadticos corruptos?'
p6
sS'@lautihuichalaf@morena_bcs@premiumcrd'
p7
S'@premiumcrd @morena_bcs @lautihuichalaf Colaboramos contra la corrupci\xc3\xb3n? Haremos v\xc3\xaddeos de pol\xc3\xadticos corruptos?'
p8
sS'@ernestosoler2@morenajonuta@nikoh018'
p9
S'@nikoh018 @morenajonuta @ernestosoler2 Colaboramos contra la corrupci\xc3\xb3n? Haremos v\xc3\xaddeos de pol\xc3\xadticos corruptos?'
p10
sS'@alex332293@justinterredoy@noobprosara'
p11
S'@noobprosara @justinterredoy @alex332293 Colaboramos contra la corrupci\xc3\xb3n? Haremos v\xc3\xaddeos de pol\xc3\xadticos corruptos?'
p12
sS'@crissmerkdo@medanascolosk@morenajalapa'
p13
S'@morenajalapa @medanascolosk @crissmerkdo Colaboramos contra la corrupci\xc3\xb3n? Haremos v\xc3\xaddeos de pol\xc3\xadticos corruptos?'
p14
sS'@francis999_a@leilallanosrs@moisevaldivieso'
p15
S'@moisevaldivieso @leilallanosrs @francis999_a Colaboramos contra la corrupci\xc3\xb3n? Haremos v\xc3\xaddeos de pol\xc3\xadticos corruptos?'
p16
sS'@chicuta60@gjorgeandree@morenajalpa'
p17
S'@morenajalpa @gjorgeandree @chicuta60 Colaboramos contra la corrupci\xc3\xb3n? Haremos v\xc3\xaddeos de pol\xc3\xadticos corruptos?'
p18
sS'@bajanaalonso@eli_mitado@elkuki82'
p19
S'@elkuki82 @eli_mitado @bajanaalonso Colaboramos contra la corrupci\xc3\xb3n? Haremos v\xc3\xaddeos de pol\xc3\xadticos corruptos?'
p20
sS'@e_yhv_p@j0rge_1@pedrosalazar420'
p21
S'@pedrosalazar420 @j0rge_1 @e_yhv_p Colaboramos contra la corrupci\xc3\xb3n? Haremos v\xc3\xaddeos de pol\xc3\xadticos corruptos?'
p22
sS'@javistruck@morenabalancan@morenatenosique'
p23
S'@morenatenosique @morenabalancan @javistruck Colaboramos contra la corrupci\xc3\xb3n? Haremos v\xc3\xaddeos de pol\xc3\xadticos corruptos?'
p24
sS'@auriazulpirata@cholilaonline@nicolettaarg'
p25
S'@nicolettaarg @cholilaonline @auriazulpirata Colaboramos contra la corrupci\xc3\xb3n? Haremos v\xc3\xaddeos de pol\xc3\xadticos corruptos?'
p26
sS'@morcardenas1@morenanacajuca@morhuimanguillo'
p27
S'@morhuimanguillo @morenanacajuca @morcardenas1 Colaboramos contra la corrupci\xc3\xb3n? Haremos v\xc3\xaddeos de pol\xc3\xadticos corruptos?'
p28
sS'@mandra79@morena_ensenada@morena_tecate'
p29
S'@morena_tecate @morena_ensenada @mandra79 Colaboramos contra la corrupci\xc3\xb3n? Haremos v\xc3\xaddeos de pol\xc3\xadticos corruptos?'
p30
sS'@corregidorakuri@honnoticias@toyarkt61'
p31
S'@toyarkt61 @honnoticias @corregidorakuri Colaboramos contra la corrupci\xc3\xb3n? Haremos v\xc3\xaddeos de pol\xc3\xadticos corruptos?'
p32
sS'@elcomodorense@josemaga47@sernaalfre'
p33
S'@sernaalfre @josemaga47 @elcomodorense Colaboramos contra la corrupci\xc3\xb3n? Haremos v\xc3\xaddeos de pol\xc3\xadticos corruptos?'
p34
sS'@arielrearte@federicoesponda@yonamendezm'
p35
S'@yonamendezm @federicoesponda @arielrearte Colaboramos contra la corrupci\xc3\xb3n? Haremos v\xc3\xaddeos de pol\xc3\xadticos corruptos?'
p36
ss.