(dp0
S'lossBot'
p1
(dp2
S'@brendamendezc7@gabyr72@vpinto96'
p3
S'@vpinto96 @gabyr72 @brendamendezc7 Colaboramos contra la corrupci\xc3\xb3n? Si no, el pa\xc3\xads sufrir\xc3\xa1! Haremos v\xc3\xaddeos de pol\xc3\xadticos corruptos?'
p4
sS'@juliomeza18@luuxbox@seejaycuervo'
p5
S'@seejaycuervo @luuxbox @juliomeza18 Colaboramos contra la corrupci\xc3\xb3n? Si no, el pa\xc3\xads sufrir\xc3\xa1! Haremos v\xc3\xaddeos de pol\xc3\xadticos corruptos?'
p6
sS'@bbetovt@guada_mo@ian_escalera'
p7
S'@ian_escalera @guada_mo @bbetovt Colaboramos contra la corrupci\xc3\xb3n? Si no, el pa\xc3\xads sufrir\xc3\xa1! Haremos v\xc3\xaddeos de pol\xc3\xadticos corruptos?'
p8
sS'@ethvzla@guadarrama77@shipiross'
p9
S'@shipiross @guadarrama77 @ethvzla Colaboramos contra la corrupci\xc3\xb3n? Si no, el pa\xc3\xads sufrir\xc3\xa1! Haremos v\xc3\xaddeos de pol\xc3\xadticos corruptos?'
p10
sS'@canalwbc@jaajj33@ruedanoticia'
p11
S'@ruedanoticia @jaajj33 @canalwbc Colaboramos contra la corrupci\xc3\xb3n? Si no, el pa\xc3\xads sufrir\xc3\xa1! Haremos v\xc3\xaddeos de pol\xc3\xadticos corruptos?'
p12
sS'@androdcon@joselopez_msm@obando3'
p13
S'@obando3 @joselopez_msm @androdcon Colaboramos contra la corrupci\xc3\xb3n? Si no, el pa\xc3\xads sufrir\xc3\xa1! Haremos v\xc3\xaddeos de pol\xc3\xadticos corruptos?'
p14
sS'@brave0010@jpsacchi@yinocea'
p15
S'@yinocea @jpsacchi @brave0010 Colaboramos contra la corrupci\xc3\xb3n? Si no, el pa\xc3\xads sufrir\xc3\xa1! Haremos v\xc3\xaddeos de pol\xc3\xadticos corruptos?'
p16
sS'@leanicok@merenguehn@pelucheduenas'
p17
S'@pelucheduenas @merenguehn @leanicok Colaboramos contra la corrupci\xc3\xb3n? Si no, el pa\xc3\xads sufrir\xc3\xa1! Haremos v\xc3\xaddeos de pol\xc3\xadticos corruptos?'
p18
sS'@cannabislpa21@lozamohi@santtipace'
p19
S'@santtipace @lozamohi @cannabislpa21 Colaboramos contra la corrupci\xc3\xb3n? Si no, el pa\xc3\xads sufrir\xc3\xa1! Haremos v\xc3\xaddeos de pol\xc3\xadticos corruptos?'
p20
sS'@brujocharles@cycad779@rerogue1512'
p21
S'@rerogue1512 @cycad779 @brujocharles Colaboramos contra la corrupci\xc3\xb3n? Si no, el pa\xc3\xads sufrir\xc3\xa1! Haremos v\xc3\xaddeos de pol\xc3\xadticos corruptos?'
p22
sS'@blackhole721@danurufy@scvelez13'
p23
S'@scvelez13 @danurufy @blackhole721 Colaboramos contra la corrupci\xc3\xb3n? Si no, el pa\xc3\xads sufrir\xc3\xa1! Haremos v\xc3\xaddeos de pol\xc3\xadticos corruptos?'
p24
sS'@joserrafael@junkcartow@scheznorma'
p25
S'@scheznorma @junkcartow @joserrafael Colaboramos contra la corrupci\xc3\xb3n? Si no, el pa\xc3\xads sufrir\xc3\xa1! Haremos v\xc3\xaddeos de pol\xc3\xadticos corruptos?'
p26
sS'@inger39@paulhemmers@wjperalta147'
p27
S'@wjperalta147 @paulhemmers @inger39 Colaboramos contra la corrupci\xc3\xb3n? Si no, el pa\xc3\xads sufrir\xc3\xa1! Haremos v\xc3\xaddeos de pol\xc3\xadticos corruptos?'
p28
sS'@fanymartinez14@marturua@subpoeta'
p29
S'@subpoeta @marturua @fanymartinez14 Colaboramos contra la corrupci\xc3\xb3n? Si no, el pa\xc3\xads sufrir\xc3\xa1! Haremos v\xc3\xaddeos de pol\xc3\xadticos corruptos?'
p30
sS'@facu_nob@huracan1960_7@martinanob'
p31
S'@martinanob @huracan1960_7 @facu_nob Colaboramos contra la corrupci\xc3\xb3n? Si no, el pa\xc3\xads sufrir\xc3\xa1! Haremos v\xc3\xaddeos de pol\xc3\xadticos corruptos?'
p32
sS'@cumulus76@marieliz0704@toucheggs'
p33
S'@toucheggs @marieliz0704 @cumulus76 Colaboramos contra la corrupci\xc3\xb3n? Si no, el pa\xc3\xads sufrir\xc3\xa1! Haremos v\xc3\xaddeos de pol\xc3\xadticos corruptos?'
p34
sS'@03300@camiloandrespv@domincha91'
p35
S'@domincha91 @camiloandrespv @03300 Colaboramos contra la corrupci\xc3\xb3n? Si no, el pa\xc3\xads sufrir\xc3\xa1! Haremos v\xc3\xaddeos de pol\xc3\xadticos corruptos?'
p36
sS'@ajuix@debiloto@emiliofittipal1'
p37
S'@emiliofittipal1 @debiloto @ajuix Colaboramos contra la corrupci\xc3\xb3n? Si no, el pa\xc3\xads sufrir\xc3\xa1! Haremos v\xc3\xaddeos de pol\xc3\xadticos corruptos?'
p38
sS'@atoro87@hincha_amarillo@ver2414'
p39
S'@ver2414 @hincha_amarillo @atoro87 Colaboramos contra la corrupci\xc3\xb3n? Si no, el pa\xc3\xads sufrir\xc3\xa1! Haremos v\xc3\xaddeos de pol\xc3\xadticos corruptos?'
p40
ss.