(dp0
S'gainBot'
p1
(dp2
S'@combocolombiana@moralob@yamanotek'
p3
S'@yamanotek @moralob @combocolombiana Colaboramos contra la corrupci\xc3\xb3n? As\xc3\xad el pa\xc3\xads mejora! Haremos v\xc3\xaddeos de pol\xc3\xadticos corruptos?'
p4
sS'@farm54@fredmart69@tomca50'
p5
S'@tomca50 @fredmart69 @farm54 Colaboramos contra la corrupci\xc3\xb3n? As\xc3\xad el pa\xc3\xads mejora! Haremos v\xc3\xaddeos de pol\xc3\xadticos corruptos?'
p6
sS'@celhay@oscarsignus@p2k27'
p7
S'@p2k27 @oscarsignus @celhay Colaboramos contra la corrupci\xc3\xb3n? As\xc3\xad el pa\xc3\xads mejora! Haremos v\xc3\xaddeos de pol\xc3\xadticos corruptos?'
p8
sS'@alejomontess@javiraces@kamilojuarez'
p9
S'@kamilojuarez @javiraces @alejomontess Colaboramos contra la corrupci\xc3\xb3n? As\xc3\xad el pa\xc3\xads mejora! Haremos v\xc3\xaddeos de pol\xc3\xadticos corruptos?'
p10
sS'@acnaudio@agenciacn@camerini11'
p11
S'@camerini11 @agenciacn @acnaudio Colaboramos contra la corrupci\xc3\xb3n? As\xc3\xad el pa\xc3\xads mejora! Haremos v\xc3\xaddeos de pol\xc3\xadticos corruptos?'
p12
sS'@__shamel@galletaronrrigo@mategoz'
p13
S'@mategoz @galletaronrrigo @__shamel Colaboramos contra la corrupci\xc3\xb3n? As\xc3\xad el pa\xc3\xads mejora! Haremos v\xc3\xaddeos de pol\xc3\xadticos corruptos?'
p14
sS'@chikocarlo@juanpabloc34@segabu'
p15
S'@segabu @juanpabloc34 @chikocarlo Colaboramos contra la corrupci\xc3\xb3n? As\xc3\xad el pa\xc3\xads mejora! Haremos v\xc3\xaddeos de pol\xc3\xadticos corruptos?'
p16
sS'@asa_puebla@jumiro2002@tepo26'
p17
S'@tepo26 @jumiro2002 @asa_puebla Colaboramos contra la corrupci\xc3\xb3n? As\xc3\xad el pa\xc3\xads mejora! Haremos v\xc3\xaddeos de pol\xc3\xadticos corruptos?'
p18
sS'@gediaz@pintorj299@sincuento'
p19
S'@sincuento @pintorj299 @gediaz Colaboramos contra la corrupci\xc3\xb3n? As\xc3\xad el pa\xc3\xads mejora! Haremos v\xc3\xaddeos de pol\xc3\xadticos corruptos?'
p20
sS'@dorispty@gasconrocha@victorm37282014'
p21
S'@victorm37282014 @gasconrocha @dorispty Colaboramos contra la corrupci\xc3\xb3n? As\xc3\xad el pa\xc3\xads mejora! Haremos v\xc3\xaddeos de pol\xc3\xadticos corruptos?'
p22
sS'@cronicapolicial@futbolchearg@jara1120'
p23
S'@jara1120 @futbolchearg @cronicapolicial Colaboramos contra la corrupci\xc3\xb3n? As\xc3\xad el pa\xc3\xads mejora! Haremos v\xc3\xaddeos de pol\xc3\xadticos corruptos?'
p24
sS'@cnldu@flash317@morgothcat'
p25
S'@morgothcat @flash317 @cnldu Colaboramos contra la corrupci\xc3\xb3n? As\xc3\xad el pa\xc3\xads mejora! Haremos v\xc3\xaddeos de pol\xc3\xadticos corruptos?'
p26
sS'@astridrodhe@danocamx@jacoacero'
p27
S'@jacoacero @danocamx @astridrodhe Colaboramos contra la corrupci\xc3\xb3n? As\xc3\xad el pa\xc3\xads mejora! Haremos v\xc3\xaddeos de pol\xc3\xadticos corruptos?'
p28
sS'@galiiz@marcoviano@sanchez24602569'
p29
S'@sanchez24602569 @marcoviano @galiiz Colaboramos contra la corrupci\xc3\xb3n? As\xc3\xad el pa\xc3\xads mejora! Haremos v\xc3\xaddeos de pol\xc3\xadticos corruptos?'
p30
sS'@ccdvsdo@hipotecate_tu@yazmine52'
p31
S'@yazmine52 @hipotecate_tu @ccdvsdo Colaboramos contra la corrupci\xc3\xb3n? As\xc3\xad el pa\xc3\xads mejora! Haremos v\xc3\xaddeos de pol\xc3\xadticos corruptos?'
p32
sS'@marcosdaniel01@mmerida95@oydmiami_'
p33
S'@oydmiami_ @mmerida95 @marcosdaniel01 Colaboramos contra la corrupci\xc3\xb3n? As\xc3\xad el pa\xc3\xads mejora! Haremos v\xc3\xaddeos de pol\xc3\xadticos corruptos?'
p34
sS'@neeneeeeeee@notesreport@nununc_app_sp'
p35
S'@nununc_app_sp @notesreport @neeneeeeeee Colaboramos contra la corrupci\xc3\xb3n? As\xc3\xad el pa\xc3\xads mejora! Haremos v\xc3\xaddeos de pol\xc3\xadticos corruptos?'
p36
sS'@alfonsovasquezv@hajeroza@morena300mx'
p37
S'@morena300mx @hajeroza @alfonsovasquezv Colaboramos contra la corrupci\xc3\xb3n? As\xc3\xad el pa\xc3\xads mejora! Haremos v\xc3\xaddeos de pol\xc3\xadticos corruptos?'
p38
sS'@cookielucky13@fletesmabe@tonsanjr'
p39
S'@tonsanjr @fletesmabe @cookielucky13 Colaboramos contra la corrupci\xc3\xb3n? As\xc3\xad el pa\xc3\xads mejora! Haremos v\xc3\xaddeos de pol\xc3\xadticos corruptos?'
p40
sS'@caracusmx@karenfranhh@rauldanielv'
p41
S'@rauldanielv @karenfranhh @caracusmx Colaboramos contra la corrupci\xc3\xb3n? As\xc3\xad el pa\xc3\xads mejora! Haremos v\xc3\xaddeos de pol\xc3\xadticos corruptos?'
p42
sS'@chrystyan_rb@lgladysd@naagencia'
p43
S'@naagencia @lgladysd @chrystyan_rb Colaboramos contra la corrupci\xc3\xb3n? As\xc3\xad el pa\xc3\xads mejora! Haremos v\xc3\xaddeos de pol\xc3\xadticos corruptos?'
p44
sS'@edwimb@mariolamontero@reclamoman'
p45
S'@reclamoman @mariolamontero @edwimb Colaboramos contra la corrupci\xc3\xb3n? As\xc3\xad el pa\xc3\xads mejora! Haremos v\xc3\xaddeos de pol\xc3\xadticos corruptos?'
p46
sS'@asiesmonterrey@claressus@riotuy_'
p47
S'@riotuy_ @claressus @asiesmonterrey Colaboramos contra la corrupci\xc3\xb3n? As\xc3\xad el pa\xc3\xads mejora! Haremos v\xc3\xaddeos de pol\xc3\xadticos corruptos?'
p48
sS'@hannahprensa@rinconderufo@rubenchoski'
p49
S'@rubenchoski @rinconderufo @hannahprensa Colaboramos contra la corrupci\xc3\xb3n? As\xc3\xad el pa\xc3\xads mejora! Haremos v\xc3\xaddeos de pol\xc3\xadticos corruptos?'
p50
sS'@gluna12@ivanroodrigueez@noahalejandra'
p51
S'@noahalejandra @ivanroodrigueez @gluna12 Colaboramos contra la corrupci\xc3\xb3n? As\xc3\xad el pa\xc3\xads mejora! Haremos v\xc3\xaddeos de pol\xc3\xadticos corruptos?'
p52
sS'@gpulgarduno@karimgozaine@oburrone'
p53
S'@oburrone @karimgozaine @gpulgarduno Colaboramos contra la corrupci\xc3\xb3n? As\xc3\xad el pa\xc3\xads mejora! Haremos v\xc3\xaddeos de pol\xc3\xadticos corruptos?'
p54
sS'@joymty@m_vigik@marceloc051'
p55
S'@marceloc051 @m_vigik @joymty Colaboramos contra la corrupci\xc3\xb3n? As\xc3\xad el pa\xc3\xads mejora! Haremos v\xc3\xaddeos de pol\xc3\xadticos corruptos?'
p56
sS'@recendiz0469@rockdirecto@sunoticiero'
p57
S'@sunoticiero @rockdirecto @recendiz0469 Colaboramos contra la corrupci\xc3\xb3n? As\xc3\xad el pa\xc3\xads mejora! Haremos v\xc3\xaddeos de pol\xc3\xadticos corruptos?'
p58
sS'@absolutm@hectoriov@mimidonato10'
p59
S'@mimidonato10 @hectoriov @absolutm Colaboramos contra la corrupci\xc3\xb3n? As\xc3\xad el pa\xc3\xads mejora! Haremos v\xc3\xaddeos de pol\xc3\xadticos corruptos?'
p60
sS'@humbert507@javyyk@manndigra1'
p61
S'@manndigra1 @javyyk @humbert507 Colaboramos contra la corrupci\xc3\xb3n? As\xc3\xad el pa\xc3\xads mejora! Haremos v\xc3\xaddeos de pol\xc3\xadticos corruptos?'
p62
sS'@mrivas22@pablohiriart@thaliaro24'
p63
S'@thaliaro24 @pablohiriart @mrivas22 Colaboramos contra la corrupci\xc3\xb3n? As\xc3\xad el pa\xc3\xads mejora! Haremos v\xc3\xaddeos de pol\xc3\xadticos corruptos?'
p64
sS'@daniel_riosve@eduardomassieu@lcmn90'
p65
S'@lcmn90 @eduardomassieu @daniel_riosve Colaboramos contra la corrupci\xc3\xb3n? As\xc3\xad el pa\xc3\xads mejora! Haremos v\xc3\xaddeos de pol\xc3\xadticos corruptos?'
p66
sS'@blyonsmer63@fedorlogan@pulquerrimo'
p67
S'@pulquerrimo @fedorlogan @blyonsmer63 Colaboramos contra la corrupci\xc3\xb3n? As\xc3\xad el pa\xc3\xads mejora! Haremos v\xc3\xaddeos de pol\xc3\xadticos corruptos?'
p68
sS'@brauliosergio1@dic92_ricky@dongus21'
p69
S'@dongus21 @dic92_ricky @brauliosergio1 Colaboramos contra la corrupci\xc3\xb3n? As\xc3\xad el pa\xc3\xads mejora! Haremos v\xc3\xaddeos de pol\xc3\xadticos corruptos?'
p70
sS'@alebaham@cibb31@zalvador'
p71
S'@zalvador @cibb31 @alebaham Colaboramos contra la corrupci\xc3\xb3n? As\xc3\xad el pa\xc3\xads mejora! Haremos v\xc3\xaddeos de pol\xc3\xadticos corruptos?'
p72
sS'@acruzguillen@hm_uruguayo@judio500'
p73
S'@judio500 @hm_uruguayo @acruzguillen Colaboramos contra la corrupci\xc3\xb3n? As\xc3\xad el pa\xc3\xads mejora! Haremos v\xc3\xaddeos de pol\xc3\xadticos corruptos?'
p74
sS'@elprof_luix@gilsago@notluis'
p75
S'@notluis @gilsago @elprof_luix Colaboramos contra la corrupci\xc3\xb3n? As\xc3\xad el pa\xc3\xads mejora! Haremos v\xc3\xaddeos de pol\xc3\xadticos corruptos?'
p76
ss.