(dp0
S'gainBot'
p1
(dp2
S'@aurgarcia@cemarino@wendy_c_bravo'
p3
S'@wendy_c_bravo @cemarino @aurgarcia Colaboramos contra la corrupci\xc3\xb3n? As\xc3\xad el pa\xc3\xads mejora! Haremos v\xc3\xaddeos de pol\xc3\xadticos corruptos?'
p4
sS'@dejarami2@dennis_hrnndz@luis0000listo'
p5
S'@luis0000listo @dennis_hrnndz @dejarami2 Colaboramos contra la corrupci\xc3\xb3n? As\xc3\xad el pa\xc3\xads mejora! Haremos v\xc3\xaddeos de pol\xc3\xadticos corruptos?'
p6
sS'@71carm28@evalimay@martincho1964'
p7
S'@martincho1964 @evalimay @71carm28 Colaboramos contra la corrupci\xc3\xb3n? As\xc3\xad el pa\xc3\xads mejora! Haremos v\xc3\xaddeos de pol\xc3\xadticos corruptos?'
p8
sS'@daviddiazpr@melbustamante15@yeahmario'
p9
S'@yeahmario @melbustamante15 @daviddiazpr Colaboramos contra la corrupci\xc3\xb3n? As\xc3\xad el pa\xc3\xads mejora! Haremos v\xc3\xaddeos de pol\xc3\xadticos corruptos?'
p10
sS'@anna_amorb@mami_valde@nahirborges'
p11
S'@nahirborges @mami_valde @anna_amorb Colaboramos contra la corrupci\xc3\xb3n? As\xc3\xad el pa\xc3\xads mejora! Haremos v\xc3\xaddeos de pol\xc3\xadticos corruptos?'
p12
sS'@artpress_@lauklez@patagoniaradio'
p13
S'@patagoniaradio @lauklez @artpress_ Colaboramos contra la corrupci\xc3\xb3n? As\xc3\xad el pa\xc3\xads mejora! Haremos v\xc3\xaddeos de pol\xc3\xadticos corruptos?'
p14
sS'@29_mariela@anando9@eduandinoe'
p15
S'@eduandinoe @anando9 @29_mariela Colaboramos contra la corrupci\xc3\xb3n? As\xc3\xad el pa\xc3\xads mejora! Haremos v\xc3\xaddeos de pol\xc3\xadticos corruptos?'
p16
sS'@andatira@maximumneto@usamedgo'
p17
S'@usamedgo @maximumneto @andatira Colaboramos contra la corrupci\xc3\xb3n? As\xc3\xad el pa\xc3\xads mejora! Haremos v\xc3\xaddeos de pol\xc3\xadticos corruptos?'
p18
sS'@jimmy_olano@leo_omares@yoyicordobaw'
p19
S'@yoyicordobaw @leo_omares @jimmy_olano Colaboramos contra la corrupci\xc3\xb3n? As\xc3\xad el pa\xc3\xads mejora! Haremos v\xc3\xaddeos de pol\xc3\xadticos corruptos?'
p20
sS'@atiempomx@australopitecuz@chuocardozo'
p21
S'@chuocardozo @australopitecuz @atiempomx Colaboramos contra la corrupci\xc3\xb3n? As\xc3\xad el pa\xc3\xads mejora! Haremos v\xc3\xaddeos de pol\xc3\xadticos corruptos?'
p22
sS'@1elmarque@aguspereyrat@luisrolando12'
p23
S'@luisrolando12 @aguspereyrat @1elmarque Colaboramos contra la corrupci\xc3\xb3n? As\xc3\xad el pa\xc3\xads mejora! Haremos v\xc3\xaddeos de pol\xc3\xadticos corruptos?'
p24
sS'@didi_moji@margaritph@villamil73'
p25
S'@villamil73 @margaritph @didi_moji Colaboramos contra la corrupci\xc3\xb3n? As\xc3\xad el pa\xc3\xads mejora! Haremos v\xc3\xaddeos de pol\xc3\xadticos corruptos?'
p26
sS'@lali_amiga@pontelele@telocuentonews'
p27
S'@telocuentonews @pontelele @lali_amiga Colaboramos contra la corrupci\xc3\xb3n? As\xc3\xad el pa\xc3\xads mejora! Haremos v\xc3\xaddeos de pol\xc3\xadticos corruptos?'
p28
sS'@briggs_thiago@goyo42@uosthfacesolar'
p29
S'@uosthfacesolar @goyo42 @briggs_thiago Colaboramos contra la corrupci\xc3\xb3n? As\xc3\xad el pa\xc3\xads mejora! Haremos v\xc3\xaddeos de pol\xc3\xadticos corruptos?'
p30
sS'@edgaraf2013@fjqdarck@reyflamez27'
p31
S'@reyflamez27 @fjqdarck @edgaraf2013 Colaboramos contra la corrupci\xc3\xb3n? As\xc3\xad el pa\xc3\xads mejora! Haremos v\xc3\xaddeos de pol\xc3\xadticos corruptos?'
p32
sS'@gtovotapan@price507@talishamqx38'
p33
S'@talishamqx38 @price507 @gtovotapan Colaboramos contra la corrupci\xc3\xb3n? As\xc3\xad el pa\xc3\xads mejora! Haremos v\xc3\xaddeos de pol\xc3\xadticos corruptos?'
p34
sS'@noticiasdospunt@nouveaumonde5@rabinci'
p35
S'@rabinci @nouveaumonde5 @noticiasdospunt Colaboramos contra la corrupci\xc3\xb3n? As\xc3\xad el pa\xc3\xads mejora! Haremos v\xc3\xaddeos de pol\xc3\xadticos corruptos?'
p36
sS'@francamenteh@jose_m4a1@untaljomar'
p37
S'@untaljomar @jose_m4a1 @francamenteh Colaboramos contra la corrupci\xc3\xb3n? As\xc3\xad el pa\xc3\xads mejora! Haremos v\xc3\xaddeos de pol\xc3\xadticos corruptos?'
p38
sS'@cianmovi@goldeneye1995@royepezj'
p39
S'@royepezj @goldeneye1995 @cianmovi Colaboramos contra la corrupci\xc3\xb3n? As\xc3\xad el pa\xc3\xads mejora! Haremos v\xc3\xaddeos de pol\xc3\xadticos corruptos?'
p40
sS'@finolforex@pedrorouter@suhara136'
p41
S'@suhara136 @pedrorouter @finolforex Colaboramos contra la corrupci\xc3\xb3n? As\xc3\xad el pa\xc3\xads mejora! Haremos v\xc3\xaddeos de pol\xc3\xadticos corruptos?'
p42
sS'@eve_aguero14@jjjluchador@mkdirecto'
p43
S'@mkdirecto @jjjluchador @eve_aguero14 Colaboramos contra la corrupci\xc3\xb3n? As\xc3\xad el pa\xc3\xads mejora! Haremos v\xc3\xaddeos de pol\xc3\xadticos corruptos?'
p44
sS'@facepolitica@frenchui@neobonilla1'
p45
S'@neobonilla1 @frenchui @facepolitica Colaboramos contra la corrupci\xc3\xb3n? As\xc3\xad el pa\xc3\xads mejora! Haremos v\xc3\xaddeos de pol\xc3\xadticos corruptos?'
p46
sS'@abgmelvis@likearascacielo@monicasm6'
p47
S'@monicasm6 @likearascacielo @abgmelvis Colaboramos contra la corrupci\xc3\xb3n? As\xc3\xad el pa\xc3\xads mejora! Haremos v\xc3\xaddeos de pol\xc3\xadticos corruptos?'
p48
sS'@icselo@lalvarado1404@todopan1'
p49
S'@todopan1 @lalvarado1404 @icselo Colaboramos contra la corrupci\xc3\xb3n? As\xc3\xad el pa\xc3\xads mejora! Haremos v\xc3\xaddeos de pol\xc3\xadticos corruptos?'
p50
sS'@joramell_a@migueljm@williamnavea'
p51
S'@williamnavea @migueljm @joramell_a Colaboramos contra la corrupci\xc3\xb3n? As\xc3\xad el pa\xc3\xads mejora! Haremos v\xc3\xaddeos de pol\xc3\xadticos corruptos?'
p52
sS'@26_francisco@distefanobf@raft31'
p53
S'@raft31 @distefanobf @26_francisco Colaboramos contra la corrupci\xc3\xb3n? As\xc3\xad el pa\xc3\xads mejora! Haremos v\xc3\xaddeos de pol\xc3\xadticos corruptos?'
p54
sS'@cqpatagonia@jeanrada1980@natialcaide'
p55
S'@natialcaide @jeanrada1980 @cqpatagonia Colaboramos contra la corrupci\xc3\xb3n? As\xc3\xad el pa\xc3\xads mejora! Haremos v\xc3\xaddeos de pol\xc3\xadticos corruptos?'
p56
sS'@_aherrero@ccspjp@sheila_ao23'
p57
S'@sheila_ao23 @ccspjp @_aherrero Colaboramos contra la corrupci\xc3\xb3n? As\xc3\xad el pa\xc3\xads mejora! Haremos v\xc3\xaddeos de pol\xc3\xadticos corruptos?'
p58
sS'@estacionplus@lilylngc@rumbera1055'
p59
S'@rumbera1055 @lilylngc @estacionplus Colaboramos contra la corrupci\xc3\xb3n? As\xc3\xad el pa\xc3\xads mejora! Haremos v\xc3\xaddeos de pol\xc3\xadticos corruptos?'
p60
sS'@conlupamx@fredy_seguro@jaah_14_'
p61
S'@jaah_14_ @fredy_seguro @conlupamx Colaboramos contra la corrupci\xc3\xb3n? As\xc3\xad el pa\xc3\xads mejora! Haremos v\xc3\xaddeos de pol\xc3\xadticos corruptos?'
p62
sS'@camilabelen_cb@matutobe@tecnolocoful'
p63
S'@tecnolocoful @matutobe @camilabelen_cb Colaboramos contra la corrupci\xc3\xb3n? As\xc3\xad el pa\xc3\xads mejora! Haremos v\xc3\xaddeos de pol\xc3\xadticos corruptos?'
p64
sS'@delom_h@enriquejx@mirivelo'
p65
S'@mirivelo @enriquejx @delom_h Colaboramos contra la corrupci\xc3\xb3n? As\xc3\xad el pa\xc3\xads mejora! Haremos v\xc3\xaddeos de pol\xc3\xadticos corruptos?'
p66
sS'@docfuno@mariellatarot@rsnunez'
p67
S'@rsnunez @mariellatarot @docfuno Colaboramos contra la corrupci\xc3\xb3n? As\xc3\xad el pa\xc3\xads mejora! Haremos v\xc3\xaddeos de pol\xc3\xadticos corruptos?'
p68
sS'@javoringo@nazarethbnb@seba_wyy'
p69
S'@seba_wyy @nazarethbnb @javoringo Colaboramos contra la corrupci\xc3\xb3n? As\xc3\xad el pa\xc3\xads mejora! Haremos v\xc3\xaddeos de pol\xc3\xadticos corruptos?'
p70
sS'@hilda_rita@jperezsaez@radios_online21'
p71
S'@radios_online21 @jperezsaez @hilda_rita Colaboramos contra la corrupci\xc3\xb3n? As\xc3\xad el pa\xc3\xads mejora! Haremos v\xc3\xaddeos de pol\xc3\xadticos corruptos?'
p72
sS'@aryttit@lorenzoparraga@misionesptodos'
p73
S'@misionesptodos @lorenzoparraga @aryttit Colaboramos contra la corrupci\xc3\xb3n? As\xc3\xad el pa\xc3\xads mejora! Haremos v\xc3\xaddeos de pol\xc3\xadticos corruptos?'
p74
sS'@elreventon99@irapuatohoy@starrental'
p75
S'@starrental @irapuatohoy @elreventon99 Colaboramos contra la corrupci\xc3\xb3n? As\xc3\xad el pa\xc3\xads mejora! Haremos v\xc3\xaddeos de pol\xc3\xadticos corruptos?'
p76
sS'@haroldporras1@joel472@rolex_guevara'
p77
S'@rolex_guevara @joel472 @haroldporras1 Colaboramos contra la corrupci\xc3\xb3n? As\xc3\xad el pa\xc3\xads mejora! Haremos v\xc3\xaddeos de pol\xc3\xadticos corruptos?'
p78
sS'@arajesu@gisespot@rayramirez19'
p79
S'@rayramirez19 @gisespot @arajesu Colaboramos contra la corrupci\xc3\xb3n? As\xc3\xad el pa\xc3\xads mejora! Haremos v\xc3\xaddeos de pol\xc3\xadticos corruptos?'
p80
ss.