(dp0
S'directBot'
p1
(dp2
S'@bono9313@md_galdamez@stefanysasso'
p3
S'@stefanysasso @md_galdamez @bono9313 Colaboramos contra la corrupci\xc3\xb3n? Haremos v\xc3\xaddeos de pol\xc3\xadticos corruptos?'
p4
ss.