(lp0
S'Bien! C\xc3\xb3mo combatir la corrupci\xc3\xb3n en nuestras Cds? El pa\xc3\xads si no, caer\xc3\xa1!'
p1
aS'Super! Y en todo el pa\xc3\xads, c\xc3\xb3mo combatirla? si no, caeremos!'
p2
aS'OK! Pero podr\xc3\xada aun terminar mal, c\xc3\xb3mo usar Twitter para combatirla?  '
p3
aS'Bien! Y c\xc3\xb3mo usamos al pueblo para combatirla? Si no, caer\xc3\xa1 todo!'
p4
aS'Super! Y Tu qu\xc3\xa9 cambias para combatirla? Si no, nuestros hijos sufren!'
p5
aS'Me late! Y qu\xc3\xa9 reducimos, para combatirla? El pa\xc3\xads si no, cae!'
p6
aS'Super! Y qu\xc3\xa9 cambiamos en casa para combatirla? Si no, caeremos!'
p7
a.