(lp0
S'Great! How do we start fighting impunity in our cities?'
p1
aS'Super! But in the whole country how could we fight impunity?'
p2
aS'OK! and  could we use Twitter to remove impunity? how?'
p3
aS'Awesome!  But so could we use the people to fight impunity?'
p4
aS"That's a super idea! What should we change personally to fight impunity?"
p5
aS'I like this idea! But what exactly should we reduce to fight impunity?'
p6
aS"That's great idea! What exactly should we change at home to fight impunity?"
p7
a.