(lp0
S'Great! What could we do to fight impunity in our cities and thus improve our country?'
p1
aS'Super! But in the whole country how do we fight impunity to improve it?'
p2
aS'OK. But could we use Twitter to fight impunity and thus better our future?'
p3
aS'Awesome!  But so could we use the people to fight impunity & improve future?'
p4
aS'Super idea! What should we change to fight impunity & improve?'
p5
aS'I like this idea! But what exactly should we reduce to fight impunity & improve?'
p6
aS"That's great idea! What exactly should we change at home to fight impunity & better?"
p7
a.