(lp0
S'Buena idea! Pero c\xc3\xb3mo quitamos la impunidad de nuestras Cds?'
p1
aS'Super! Y del pa\xc3\xads, c\xc3\xb3mo la quitamos?'
p2
aS'OK! Pero, Y c\xc3\xb3mo usar Twitter contra la impunidad?'
p3
aS'Gran idea! Y c\xc3\xb3mo usar a la gente contra la impunidad?'
p4
aS'Super! Y qu\xc3\xa9 cambiamos personalmente para combatirla?'
p5
aS'Me late! Y qu\xc3\xa9 reducimos, para eliminar la impunidad?'
p6
aS'Buena idea! Y qu\xc3\xa9 debemos cambiar en casa para combatirla?'
p7
aS'Bien! Pero, c\xc3\xb3mo combatimos la corrupci\xc3\xb3n en nuestras Cds?'
p8
aS'Super! Pero, y en todo el pa\xc3\xads, c\xc3\xb3mo combatirla?'
p9
aS'OK! Y c\xc3\xb3mo usamos Twitter para eliminar la corrupci\xc3\xb3n?'
p10
aS'Bien! Y c\xc3\xb3mo usamos al pueblo para combatirla?'
p11
aS'Super! Y qu\xc3\xa9 cambiamos personalmente para combatirla?'
p12
aS'Me late! Y qu\xc3\xa9 reducimos, para no tener corrupci\xc3\xb3n?'
p13
aS'Super! Y qu\xc3\xa9 debemos cambiar en casa para combatirla?'
p14
a.