(lp0
S'Bien! C\xc3\xb3mo combatir la corrupci\xc3\xb3n en nuestras Cds para un mejor futuro?'
p1
aS'Super! Y en todo el pa\xc3\xads, c\xc3\xb3mo combatirla para un mejor futuro?'
p2
aS'OK! Y c\xc3\xb3mo usar Twitter para un mejor futuro sin corrupci\xc3\xb3n?'
p3
aS'Bien! Y c\xc3\xb3mo usamos al pueblo para un mejor futuro sin ella?'
p4
aS'Super! Y qu\xc3\xa9 cambiamos personalmente para combatirla y estar mejor?'
p5
aS'Me late! Y qu\xc3\xa9 reducimos, para no tener corrupci\xc3\xb3n y estar mejor?'
p6
aS'Super! Y qu\xc3\xa9 debemos cambiar en casa para un mejor futuro sin ella?'
p7
a.