(lp0
S'Bien! Pero, c\xc3\xb3mo combatimos la corrupci\xc3\xb3n en nuestras Cds?'
p1
aS'Super! Pero, y en todo el pa\xc3\xads, c\xc3\xb3mo combatirla?'
p2
aS'OK! Y c\xc3\xb3mo usamos Twitter para eliminar la corrupci\xc3\xb3n?'
p3
aS'Bien! Y c\xc3\xb3mo usamos al pueblo para combatirla?'
p4
aS'Super! Y qu\xc3\xa9 cambiamos personalmente para combatirla?'
p5
aS'Me late! Y qu\xc3\xa9 reducimos, para no tener corrupci\xc3\xb3n?'
p6
aS'Super! Y qu\xc3\xa9 debemos cambiar en casa para combatirla?'
p7
a.