(dp0
S'@compavendetta_4@j5uanh@veronikhank'
p1
(dp2
S'Super! Y qu\xc3\xa9 debemos cambiar en casa para un mejor futuro sin ella?'
p3
I0
ssS'@saiphchen'
p4
(dp5
S'Me late! Y qu\xc3\xa9 reducimos, para no tener corrupci\xc3\xb3n y estar mejor?'
p6
I0
ssS'@joramell_a@migueljm@williamnavea'
p7
(dp8
S'Super! Y en todo el pa\xc3\xads, c\xc3\xb3mo combatirla para un mejor futuro?'
p9
I0
sS'OK! Y c\xc3\xb3mo usar Twitter para un mejor futuro sin corrupci\xc3\xb3n?'
p10
I0
ssS'@niicocherry@pepitomonchito1@tutogol'
p11
(dp12
S'Bien! Y c\xc3\xb3mo usamos al pueblo para un mejor futuro sin ella?'
p13
I0
sg10
I0
ssS'@abilio_juan@felipenanno@notigerencial'
p14
(dp15
g13
I0
ssV@mrivas22@pablohiriart@thaliaro24
p16
(dp17
g3
I0
sg6
I0
ssS'@hannahprensa@rinconderufo@rubenchoski'
p18
(dp19
g13
I0
ssV@1elmarque@aguspereyrat@luisrolando12
p20
(dp21
g9
I0
ssS'@jimmy_olano@leo_omares@yoyicordobaw'
p22
(dp23
g3
I0
sg6
I0
ssS'@thaliaro24'
p24
(dp25
g13
I0
sg10
I0
sg3
I0
sg6
I0
sS'Bien! C\xc3\xb3mo combatir la corrupci\xc3\xb3n en nuestras Cds para un mejor futuro?'
p26
I0
sg9
I0
sS'Super! Y qu\xc3\xa9 cambiamos personalmente para combatirla y estar mejor?'
p27
I0
ssV@carlicerrutti@cesarpo33@ojocallejero
p28
(dp29
g13
I0
ssS'@williamnavea'
p30
(dp31
g27
I0
ssS'@recendiz0469@rockdirecto@sunoticiero'
p32
(dp33
g13
I0
ssV@mimi@mimidonato10
p34
(dp35
g3
I0
ss.