(dp0
S'@compavendetta_4@j5uanh@veronikhank'
p1
I0
sS'@saiphchen'
p2
I0
sS'@joramell_a@migueljm@williamnavea'
p3
I1
sS'@niicocherry@pepitomonchito1@tutogol'
p4
I1
sS'@abilio_juan@felipenanno@notigerencial'
p5
I0
sV@mrivas22@pablohiriart@thaliaro24
p6
I1
sS'@hannahprensa@rinconderufo@rubenchoski'
p7
I0
sV@1elmarque@aguspereyrat@luisrolando12
p8
I0
sS'@jimmy_olano@leo_omares@yoyicordobaw'
p9
I1
sS'@thaliaro24'
p10
I6
sV@carlicerrutti@cesarpo33@ojocallejero
p11
I0
sS'@williamnavea'
p12
I0
sS'@recendiz0469@rockdirecto@sunoticiero'
p13
I0
sV@mimi@mimidonato10
p14
I0
s.