(dp0
V@invencible1347@nitramsolrac@sergio_jimenezp
p1
(dp2
S'Super! Y del pa\xc3\xads, c\xc3\xb3mo la quitamos?'
p3
I0
sS'Super! Y qu\xc3\xa9 debemos cambiar en casa para combatirla?'
p4
I0
sS'OK! Pero, Y c\xc3\xb3mo usar Twitter contra la impunidad?'
p5
I0
sS'Me late! Y qu\xc3\xa9 reducimos, para no tener corrupci\xc3\xb3n?'
p6
I0
sS'Gran idea! Y c\xc3\xb3mo usar a la gente contra la impunidad?'
p7
I0
sS'Super! Pero, y en todo el pa\xc3\xads, c\xc3\xb3mo combatirla?'
p8
I0
sS'Super! Y qu\xc3\xa9 cambiamos personalmente para combatirla?'
p9
I0
ss.