(dp0
S'@jazq144@layalaur@palcasjorge'
p1
(dp2
S'OK! Y c\xc3\xb3mo usamos Twitter para eliminar la impunidad?'
p3
I0
ssS'@pollotelaviv'
p4
(dp5
S'Super! Pero, y en todo el pa\xc3\xads, c\xc3\xb3mo combatirla?'
p6
I0
ss.