(dp0
S'saiphchen'
p1
I0
sS'luisrolando12'
p2
I0
sS'leo_omares'
p3
I1
sS'mimidonato10'
p4
I0
sS'rinconderufo'
p5
I0
sS'compavendetta_4'
p6
I0
sS'ojocallejero'
p7
I0
sS'thaliaro24'
p8
I8
sS'abilio_juan'
p9
I0
sS'williamnavea'
p10
I2
sS'niicocherry'
p11
I1
sS'rockdirecto'
p12
I0
s.