(dp0
V@chbr2011@serelpablo@taliilarsen
p1
(dp2
S'Super! Y qu\xc3\xa9 cambiamos en casa para combatirla? Si no, caeremos!'
p3
I0
ssS'@betsyarreola@hugorf_uc@jsbriganti'
p4
(dp5
S'Bien! Y c\xc3\xb3mo usamos al pueblo para combatirla? Si no, caer\xc3\xa1 todo!'
p6
I0
ssS'@likezabdy@nolackms@sejoniku'
p7
(dp8
S'Bien! C\xc3\xb3mo combatir la corrupci\xc3\xb3n en nuestras Cds? El pa\xc3\xads si no, caer\xc3\xa1!'
p9
I0
ssS'@bisshoop@jcregales@regresiva1'
p10
(dp11
S'Super! Y Tu qu\xc3\xa9 cambias para combatirla? Si no, nuestros hijos sufren!'
p12
I0
sg6
I0
sS'Super! Y en todo el pa\xc3\xads, c\xc3\xb3mo combatirla? si no, caeremos!'
p13
I0
ss.