(dp0
S'saiphchen'
p1
(dp2
S'596394862028529664'
p3
(dp4
S'date'
p5
cdatetime
datetime
p6
(S'\x07\xdf\x05\x07\x13\x16\x1f\x00\x00\x00'
p7
tp8
Rp9
sS'message'
p10
S'@ColabRobot la corrupcion nos matara'
p11
sS'stateMachine'
p12
I-1
sS'namesMentioned'
p13
(dp14
S'@saiphchen'
p15
I0
ssssS'bossmanupdates'
p16
(dp17
S'596514575152852992'
p18
(dp19
g5
g6
(S'\x07\xdf\x05\x08\x03\x12\x0c\x00\x00\x00'
p20
tp21
Rp22
sg10
S'@ColabRobot Please subscribe to my YouTube channel for the Mitch &amp; Marcus GTA series! Link in bio!! via http://t.co/njU1K3Fug8'
p23
sg12
I-1
sg13
(dp24
S'@bossmanupdates'
p25
I0
ssss.