(dp0
S'saiphchen'
p1
(dp2
S'603362840586526720'
p3
(dp4
S'date'
p5
cdatetime
datetime
p6
(S'\x07\xdf\x05\x1b\x003\x19\x00\x00\x00'
p7
tp8
Rp9
sS'message'
p10
S'@colaboracionBot si pudiera arrancarte el corazon'
p11
sS'stateMachine'
p12
I-1
sS'namesMentioned'
p13
(dp14
S'@saiphchen'
p15
I0
ssss.