(dp0
S'pollotelaviv'
p1
(dp2
S'603652932874194944'
p3
(dp4
S'date'
p5
cdatetime
datetime
p6
(S'\x07\xdf\x05\x1b\x14\x04\x07\x00\x00\x00'
p7
tp8
Rp9
sS'message'
p10
S'@ColabRobot En  vzla la "revolucion" ha sacado lo mas bajo del ser humano. La corrupcion es casi un requisito  para gobernar'
p11
sS'stateMachine'
p12
I-1
sS'namesMentioned'
p13
(dp14
S'@pollotelaviv'
p15
I0
ssssS'layalaur'
p16
(dp17
S'603652977019232256'
p18
(dp19
g5
g6
(S'\x07\xdf\x05\x1b\x14\x07\x11\x00\x00\x00'
p20
tp21
Rp22
sg10
S'@ColabRobot @palcasjorge @jazq144 El que tenga los medios para hacer videos que los haga'
p23
sg12
I-1
sg13
(dp24
S'@palcasjorge'
p25
I0
sS'@jazq144'
p26
I0
sS'@layalaur'
p27
I0
ssss.