(dp0
I604350745576497152
(dp1
sI604350222974590976
(dp2
sI604102014260224002
(dp3
sI604094124472446979
(dp4
sI604096510335139840
(dp5
sI604349440430862337
(dp6
sI594608584748441600
(dp7
sI604092134531026946
(dp8
sI594943560333402112
(dp9
sI604326578785406976
(dp10
sI594934236416618496
(dp11
sI595504556479381507
(dp12
sI594936694463279104
(dp13
sI604343824979124225
(dp14
sI594705317675405312
(dp15
sI593639745395142656
(dp16
S'text'
p17
VBusco unir a los ciudadanos para solucionar problemas sociales. Sin la union nos espera un futuro negro!
p18
sS'retweetCount'
p19
I0
sS'favCount'
p20
I0
ssI604016906849267712
(dp21
sI604090901300789249
(dp22
sI604089086630961152
(dp23
sI604022256931459072
(dp24
sI604100272432898049
(dp25
sI603688006306832384
(dp26
sI595017540511735808
(dp27
sI604020048030621696
(dp28
sI603757911362293760
(dp29
sI595050796993019904
(dp30
sI603757389808959490
(dp31
sI603689343505440768
(dp32
sI604345339315802112
(dp33
sI604344498487865344
(dp34
sI604093493321945088
(dp35
sI594633580883480576
(dp36
sI594668806217170944
(dp37
sI594941321053212672
(dp38
sI604087586739511296
(dp39
sI603752942017974272
(dp40
sI603750360293842945
(dp41
sI603748414489145344
(dp42
sI604019370889633792
(dp43
sI603755280443125760
(dp44
sI603684022355525632
(dp45
sI603749700685078528
(dp46
sI604347817792962560
(dp47
sI594996763435499520
(dp48
sI604095812004544512
(dp49
sI594933043535609856
(dp50
sI594998450653003777
(dp51
sI604087143074418688
(dp52
sI593770446387945472
(dp53
sI593640016514977793
(dp54
sI603688985978736640
(dp55
sI604017390720929792
(dp56
sI604015821313036288
(dp57
sI603685236841447426
(dp58
sI603682904661590016
(dp59
sI603754043517767680
(dp60
sI604090584333070336
(dp61
sI604090417089368065
(dp62
sI594941162818940928
(dp63
sI604121965691949056
(dp64
sI603754451426357248
(dp65
sI594709149906141185
(dp66
sI594979318406651904
(dp67
sI593872184495374337
(dp68
sI594941488087203840
(dp69
sI603682203151663104
(dp70
sI604345950513946624
(dp71
sI604095294087634945
(dp72
sI595428737988038658
(dp73
sI595029391589015552
(dp74
sI594997320896282624
(dp75
sI595429797364408320
(dp76
sI604346762388721665
(dp77
sI604342913401663488
(dp78
sI604023076745928705
(dp79
sI604348306307731456
(dp80
sI604021204865843200
(dp81
sI595068069417877505
(dp82
sI595441765840064512
(dp83
sI597084689250131969
(dp84
sI603687098386804736
(dp85
sI604342239066628097
(dp86
sI604020439875104768
(dp87
sI603751663447343104
(dp88
sI594568607306260480
(dp89
sI594615718705963010
(dp90
sI603689983250014208
(dp91
sI604092878940332033
(dp92
sI604018916319350784
(dp93
sI594568163536216065
(dp94
sI594696334847782912
(dp95
sI604016233986416640
(dp96
sI603756625418035200
(dp97
sI604326929643110400
(dp98
sI594946774642479105
(dp99
sI603680479372447744
(dp100
sI603752605374787584
(dp101
sI604348660806082561
(dp102
sI593657615160201216
(dp103
sI604091612264726528
(dp104
sI594661444391608320
(dp105
sI604098551275077632
(dp106
sI594684180321013762
(dp107
sI604101647602614272
(dp108
sI594859676849676288
(dp109
sI604098142431117312
(dp110
sI593769783792775169
(dp111
sI604021823198519298
(dp112
sI604090033784541184
(dp113
sI595018024534417410
(dp114
sI603687644594241536
(dp115
sI603758277717921792
(dp116
sI595420595933868032
(dp117
sI604088438871097344
(dp118
sI594562551989411840
(dp119
sI603758853621088256
(dp120
sI603679979029704705
(dp121
sI604015064216010752
(dp122
sI603753345900093440
(dp123
sI595027818557255680
(dp124
sI603684644400197633
(dp125
sI595339643555479553
(dp126
sI603683648072613888
(dp127
sI603681218794663936
(dp128
sI603750852566724608
(dp129
sI603690396976164864
(dp130
sI603688452207452160
(dp131
sI595443488038133762
(dp132
sI603686568751009792
(dp133
sI594563846683013120
(dp134
sI604089671426027520
(dp135
sI603754910031548416
(dp136
sI603686022405206017
(dp137
sI604344988906835968
(dp138
sI593639860918882304
(dp139
sI593639937355829248
(dp140
sI604100848675737600
(dp141
sI604018130449375232
(dp142
sI604023894022836224
(dp143
sI595503549527654400
(dp144
sI604099182471700480
(dp145
sI604343448401903616
(dp146
sI604097318363648001
(dp147
sI595340477924151296
(dp148
sI604099729668980737
(dp149
sI603748990199320576
(dp150
sI604023430761992192
(dp151
sI595442359975837697
(dp152
sI595051950036488192
(dp153
sI594940944312442881
(dp154
sI604094818579439616
(dp155
sI594978667987472384
(dp156
sI603755919395000320
(dp157
sI603752234896134144
(dp158
sI604087636098056192
(dp159
sI604347353923899392
(dp160
sI603681706327965696
(dp161
sI603679432709042176
(dp162
sI595503041672970241
(dp163
sI594646690021281792
(dp164
s.