(dp0
I603659233062617088
(dp1
sI603658513332600832
(dp2
sI603655641647882242
(dp3
sI593766868415983619
(dp4
sI603658109513437184
(dp5
sI603657659552821249
(dp6
sI594354589236797440
(dp7
sI594339320552501248
(dp8
sI594355657987338240
(dp9
sI595053274119610368
(dp10
sI603651890518306818
(dp11
sI594315804289540096
(dp12
sI594353985777053696
(dp13
sI593771852192854016
(dp14
sI595349145646333952
(dp15
sI594390815620796416
(dp16
sI594327458666586112
(dp17
sI594316317424951297
(dp18
sI594540551384346624
(dp19
sI595432956258287616
(dp20
sI594320181825941504
(dp21
sI603656957145124864
(dp22
sI603653731599577089
(dp23
sI595401500567805952
(dp24
sI594323465416495104
(dp25
sI593647407033778176
(dp26
sI594362651108446208
(dp27
sI595630613643800576
(dp28
sI594355098668507137
(dp29
sI603652936758009856
(dp30
sI594326829231542272
(dp31
sI594334832328462336
(dp32
sI594314767931551744
(dp33
sI594337675336810497
(dp34
sI594326319111933952
(dp35
sI593647318215184384
(dp36
S'text'
p37
VBusco unir a los ciudadanos para solucionar problemas sociales!
p38
sS'retweetCount'
p39
I0
sS'favCount'
p40
I0
ssI594362181153525760
(dp41
sI595431180067020801
(dp42
sI603652390651199488
(dp43
sI595463011541725185
(dp44
sI595432320833826818
(dp45
sI594374335445372928
(dp46
sI594360187886043136
(dp47
sI603657310284587008
(dp48
sI595431839378046976
(dp49
sI594367377552211968
(dp50
sI594364838538649600
(dp51
sI594334188360208384
(dp52
sI594315324519886849
(dp53
sI594370761021726722
(dp54
sI594383404172316672
(dp55
sI595348259121405953
(dp56
sI594317185641644032
(dp57
sI603653835291140097
(dp58
sI595053732942848000
(dp59
sI603654255484928000
(dp60
sI593658603984162816
(dp61
sI595398758805843969
(dp62
sI593647451736641536
(dp63
sI596394863928610816
(dp64
sI603651150991097856
(dp65
sI603653184209362944
(dp66
sI603654822508638208
(dp67
sI594531712954040322
(dp68
sI595399101501415424
(dp69
sI593647514907054080
(dp70
sI595401895071461377
(dp71
sI603656263856222209
(dp72
sI595346135566327808
(dp73
sI596514577694654465
(dp74
sI594353451208806400
(dp75
sI594346536043057152
(dp76
sI594321507641270272
(dp77
sI594333460824633346
(dp78
s.