(dp0
I604804793081556992
(dp1
sI604804221595099137
(dp2
sI604449073383350274
(dp3
sI595055126764654595
(dp4
sI595373024708198400
(dp5
sI595414103981686785
(dp6
sI604418853209112578
(dp7
sI603958937965170688
(dp8
sI604434629374836737
(dp9
sI604135524702371841
(dp10
sI603961393180577793
(dp11
sI603976189628133376
(dp12
sI595020502655107074
(dp13
sI604443063910400000
(dp14
sI603780437266190336
(dp15
sI604150613476179968
(dp16
sI604417496527986688
(dp17
sI595055946507751424
(dp18
sI604136201583386624
(dp19
sI604045862465970176
(dp20
sI603936082510512128
(dp21
sI603980157158694912
(dp22
sI604420695217471489
(dp23
sI594687762411851776
(dp24
sI604154256015249408
(dp25
sI603935711754981376
(dp26
sI603698180266438656
(dp27
sI603982524885241857
(dp28
sI604153810156539904
(dp29
sI603700198162898944
(dp30
sI603964436194332674
(dp31
sI604431611317190656
(dp32
sI603975113441071104
(dp33
sI603955179260522496
(dp34
sI595446806722383872
(dp35
sI603702055589388289
(dp36
sI594879913963880448
(dp37
sI604040627991379968
(dp38
sI603958190082891776
(dp39
sI604056163324321793
(dp40
sI603707110564626433
(dp41
sI604139462805725185
(dp42
sI604442019964919808
(dp43
sI603983050255409152
(dp44
sI604803291529101312
(dp45
sI594949581344903168
(dp46
sI603776091354898433
(dp47
sI604049028553154560
(dp48
sI603986083488014336
(dp49
sI604140619280199680
(dp50
sI594920895312896001
(dp51
sI604408420519661568
(dp52
sI604437246360420353
(dp53
sI604047607933992960
(dp54
sI594879698875785218
(dp55
sI595003117382467584
(dp56
sI604046287927828480
(dp57
sI604143070653755393
(dp58
sI603701004777824256
(dp59
sI604053677649723392
(dp60
sI604050352569065472
(dp61
sI604424384686624769
(dp62
sI595373388916391937
(dp63
sI593836324815147008
(dp64
sI595055246973349888
(dp65
sI603974315504082944
(dp66
sI603938751903961088
(dp67
sI595446421651763201
(dp68
sI603960911787765761
(dp69
sI604444856178458624
(dp70
sI595029109270450176
(dp71
sI603968803391680513
(dp72
sI603949746038812672
(dp73
sI603941303563333633
(dp74
sI604050982947807233
(dp75
sI594921180261273600
(dp76
sI595021677110558720
(dp77
sI604435975020756993
(dp78
sI594732945857871873
(dp79
sI603779857521057793
(dp80
sI604149167921844224
(dp81
sI603702951295614976
(dp82
sI604414267211681793
(dp83
sI604054577990664193
(dp84
sI603976916689788929
(dp85
sI595555891547541504
(dp86
sI603948400950652928
(dp87
sI604447181655785472
(dp88
sI603938016390848512
(dp89
sI604438343942705152
(dp90
sI604432605132423168
(dp91
sI603969211409436672
(dp92
sI603975798710644736
(dp93
sI604145424702652417
(dp94
sI595555135125725184
(dp95
sI604454525622050816
(dp96
sI603936860067364864
(dp97
sI603943065309454336
(dp98
sI604147502976139264
(dp99
sI604436387333435392
(dp100
sI603962806082211840
(dp101
sI604420772136779776
(dp102
sI603960106779222016
(dp103
sI604048334605549570
(dp104
sI604452417686478848
(dp105
sI593838559552876545
(dp106
sI604415496134365184
(dp107
sI603970367162429440
(dp108
sI597118314502967296
(dp109
sI603944435806707714
(dp110
sI603704333935382528
(dp111
sI603698605015216128
(dp112
sI604054953183694849
(dp113
sI603955637681266688
(dp114
sI604436897008525312
(dp115
sI595451854953127937
(dp116
sI603941908683960320
(dp117
sI604408891401625600
(dp118
sI604467330362404864
(dp119
sI604038076399099905
(dp120
sI604420178152058880
(dp121
sI604454004488208384
(dp122
sI603968277514035200
(dp123
sI604426209502490624
(dp124
sI604429821867757568
(dp125
sI604423219945218049
(dp126
sI603985319424176128
(dp127
sI604425701215715329
(dp128
sI604451938130788352
(dp129
sI604039425476042752
(dp130
sI595002890319630336
(dp131
sI603952301355610112
(dp132
sI604421962597687297
(dp133
sI604801641489899520
(dp134
sI594981105767305216
(dp135
sI604421385872547840
(dp136
sI604143848508497921
(dp137
sI604435457166811136
(dp138
sI604802117790896128
(dp139
sI604148158164160512
(dp140
sI603945503705800706
(dp141
sI604046842909753344
(dp142
sI603942631790538752
(dp143
sI604038719272706048
(dp144
sI604153211549712384
(dp145
sI595056113839538176
(dp146
sI594679478728589312
(dp147
sI595409511831056385
(dp148
sI604417468321296385
(dp149
sI595450938640367617
(dp150
sI595445792250277888
(dp151
sI604439997735792640
(dp152
sI604147127694962689
(dp153
sI603940030181089282
(dp154
sI604452897917517824
(dp155
sI604410200800403456
(dp156
sI603950434965852160
(dp157
sI604042288239521792
(dp158
sI604450878230130688
(dp159
sI603946155395821568
(dp160
sI604433000646864897
(dp161
sI604043823786774528
(dp162
sI604130436181172224
(dp163
sI603703430142496768
(dp164
sI594695439011577858
(dp165
sI604444191289012226
(dp166
sI604447988098830336
(dp167
sI604801279714394112
(dp168
sI604136731206537216
(dp169
sI603980851777376256
(dp170
sI604441238712905728
(dp171
sI603699315018567680
(dp172
sI603979573122871296
(dp173
sI604141254729801728
(dp174
sI604419684583112704
(dp175
sI603949073331167232
(dp176
sI603699769349799936
(dp177
sI604427244694413312
(dp178
sI603935165102981120
(dp179
sI595410663587115009
(dp180
sI604429002988650497
(dp181
sI603980511237705728
(dp182
sI604132518330138624
(dp183
sI603940773428535296
(dp184
sI604423820615647232
(dp185
sI604409426045345792
(dp186
sI603970872106332160
(dp187
sI604148495604269056
(dp188
sI603774040466071553
(dp189
sI604411036620337152
(dp190
sI595451543442206720
(dp191
sI604421297196531713
(dp192
sI604446802289385472
(dp193
sI604133943240056832
(dp194
sI604045269932474370
(dp195
sI604803724494503936
(dp196
sI604052244170854400
(dp197
sI604437948906369024
(dp198
sI603701597168762881
(dp199
sI594692318235463680
(dp200
sI595021541017948161
(dp201
sI604451499758878720
(dp202
sI604453326759927808
(dp203
sI604433535416438784
(dp204
sI604439269868867584
(dp205
sI603703972168245248
(dp206
sI604138143227338752
(dp207
sI604802831996960768
(dp208
sI604418803926106112
(dp209
sI603705123353726976
(dp210
sI604131744158121984
(dp211
sI594949786177941504
(dp212
sI604432212369379329
(dp213
sI604055545297784832
(dp214
sI603961746601029632
(dp215
sI604145987884449794
(dp216
sI604418284805459970
(dp217
sI603977702467489792
(dp218
sI604428014122721281
(dp219
sI604134944743391233
(dp220
sI603966840289689600
(dp221
sI603778344102952960
(dp222
sI594722210880720897
(dp223
sI604428623362195456
(dp224
sI604445674982117378
(dp225
sI603978240907083776
(dp226
sI603696826378649600
(dp227
sI604146778405904384
(dp228
sI603697238695542784
(dp229
sI604152388300087296
(dp230
sI603779445082624000
(dp231
sI604430264622645248
(dp232
sI603962347770654720
(dp233
sI603954506963918849
(dp234
sI604411684728360960
(dp235
sI595411052654899200
(dp236
sI594679649516462080
(dp237
sI604438929144569856
(dp238
sI595371705914109953
(dp239
sI593871849546645504
(dp240
sI603957571959967744
(dp241
sI604133186373865472
(dp242
sI604424499291779072
(dp243
sI604443447630561280
(dp244
sI594695581550809089
(dp245
sI604144655140167680
(dp246
sI604149962289455104
(dp247
sI604041527870902272
(dp248
sI604131259359494145
(dp249
sI604151752930131968
(dp250
sI604416096850972672
(dp251
sI603774825916542976
(dp252
sI604054015031160832
(dp253
sI603777268142350336
(dp254
sI603947206849077248
(dp255
sI604426631323598848
(dp256
sI603951851386511361
(dp257
sI594692241681088512
(dp258
sI604039900657135616
(dp259
sI604141679466033153
(dp260
sI604132109813309441
(dp261
sI604466964686176257
(dp262
sI604049704716886016
(dp263
sI603959275120013314
(dp264
sI604142247370608640
(dp265
sI604415002829709313
(dp266
sI603706321028829184
(dp267
sI603702442509733888
(dp268
sI603776541437206529
(dp269
sI594919684555735040
(dp270
sI603952893796843520
(dp271
sI604134368139812864
(dp272
sI604446197529509889
(dp273
sI593836280091283456
(dp274
sI603973877924900864
(dp275
sI604418106832781312
(dp276
sI595445589094961152
(dp277
sI603965281577238528
(dp278
sI603981969911750656
(dp279
sI604421730501672960
(dp280
sI603777713845874688
(dp281
sI603960753784147968
(dp282
sI603705942186696704
(dp283
sI595413851203620864
(dp284
sI603964890449973248
(dp285
sI603983869847543809
(dp286
sI603981368897339392
(dp287
sI603979038932078592
(dp288
sI594981296473964545
(dp289
sI603778768839127040
(dp290
sI604139976595406848
(dp291
sI603969707742384128
(dp292
sI604422525855006722
(dp293
sI604057659520622592
(dp294
sI603967651568750592
(dp295
sI604041153051144192
(dp296
sI604137345298780161
(dp297
sI594712254840381440
(dp298
sI604442379148357632
(dp299
sI603775477065457664
(dp300
sI603953692342013952
(dp301
sI604423159140347904
(dp302
sI603939419729461249
(dp303
sI604412436746108928
(dp304
sI603937629575356417
(dp305
sI595440134272614400
(dp306
sI595020657907240961
(dp307
sI604420388529897472
(dp308
sI604413034820280320
(dp309
sI604409800282124288
(dp310
sI594732725153628161
(dp311
sI595440369816317952
(dp312
sI604058201902825473
(dp313
sI604416813305225216
(dp314
sI604423541933481984
(dp315
sI594712450882150400
(dp316
sI604434186720526336
(dp317
sI604416740827635712
(dp318
sI603972230276517888
(dp319
sI594919817930387456
(dp320
sI604044575829712897
(dp321
sI597118427690455040
(dp322
sI603697768490668032
(dp323
sI604424998510469120
(dp324
sI604151118579384320
(dp325
sI603973281490731008
(dp326
sI603951091202400256
(dp327
sI604138929319600128
(dp328
sI604417893648826368
(dp329
sI603945032752615424
(dp330
sI595450719768940544
(dp331
sI604043050009010176
(dp332
sI604430806489001985
(dp333
sI604052870887956480
(dp334
sI594722385695145986
(dp335
sI603956924032253952
(dp336
sI603946639024201728
(dp337
sI595372030016393216
(dp338
sI603971549394120704
(dp339
sI593836214941155329
(dp340
S'text'
p341
VHoy vamos a hacer un poco de historia aqui\u000a--Steve Jobs
p342
sS'retweetCount'
p343
I0
sS'favCount'
p344
I0
ssI604419607563137024
(dp345
sI604440762252541952
(dp346
sI604056864788099072
(dp347
sI603956172215816192
(dp348
sI604424941316927489
(dp349
sI603948038973890560
(dp350
sI604449646296055808
(dp351
sI603966084312469504
(dp352
sI604448560881352705
(dp353
sI603972583558483968
(dp354
sI604450221808975873
(dp355
sI594687589036068864
(dp356
sI603984521017434113
(dp357
sI604051638974734336
(dp358
sI603960197522984960
(dp359
sI604042633493618688
(dp360
sI603963600303038464
(dp361
sI603943654244413440
(dp362
sI604413522575921152
(dp363
sI595410099251879937
(dp364
s.